
Pacemaker.elf:     file format elf32-littlenios2
Pacemaker.elf
architecture: nios2:r1, flags 0x00000112:
EXEC_P, HAS_SYMS, D_PAGED
start address 0x00800244

Program Header:
    LOAD off    0x00001000 vaddr 0x00800000 paddr 0x00800000 align 2**12
         filesz 0x00000020 memsz 0x00000020 flags r-x
    LOAD off    0x00001020 vaddr 0x00800020 paddr 0x00800020 align 2**12
         filesz 0x0001541c memsz 0x0001541c flags r-x
    LOAD off    0x0001643c vaddr 0x0081543c paddr 0x0081712c align 2**12
         filesz 0x00001cf0 memsz 0x00001cf0 flags rw-
    LOAD off    0x00018e1c vaddr 0x00818e1c paddr 0x00818e1c align 2**12
         filesz 0x00000000 memsz 0x00000318 flags rw-

Sections:
Idx Name          Size      VMA       LMA       File off  Algn
  0 .entry        00000020  00800000  00800000  00001000  2**5
                  CONTENTS, ALLOC, LOAD, READONLY, CODE
  1 .exceptions   00000224  00800020  00800020  00001020  2**2
                  CONTENTS, ALLOC, LOAD, READONLY, CODE
  2 .text         00014b30  00800244  00800244  00001244  2**2
                  CONTENTS, ALLOC, LOAD, READONLY, CODE
  3 .rodata       000006c8  00814d74  00814d74  00015d74  2**2
                  CONTENTS, ALLOC, LOAD, READONLY, DATA
  4 .rwdata       00001cf0  0081543c  0081712c  0001643c  2**2
                  CONTENTS, ALLOC, LOAD, DATA, SMALL_DATA
  5 .bss          00000318  00818e1c  00818e1c  00018e1c  2**2
                  ALLOC, SMALL_DATA
  6 .sdram        00000000  00819134  00819134  0001812c  2**0
                  CONTENTS
  7 .onchip_mem   00000000  01080000  01080000  0001812c  2**0
                  CONTENTS
  8 .comment      00000023  00000000  00000000  0001812c  2**0
                  CONTENTS, READONLY
  9 .debug_aranges 00001118  00000000  00000000  00018150  2**3
                  CONTENTS, READONLY, DEBUGGING
 10 .debug_info   0002be2f  00000000  00000000  00019268  2**0
                  CONTENTS, READONLY, DEBUGGING
 11 .debug_abbrev 0000adb0  00000000  00000000  00045097  2**0
                  CONTENTS, READONLY, DEBUGGING
 12 .debug_line   0000e67f  00000000  00000000  0004fe47  2**0
                  CONTENTS, READONLY, DEBUGGING
 13 .debug_frame  000027c4  00000000  00000000  0005e4c8  2**2
                  CONTENTS, READONLY, DEBUGGING
 14 .debug_str    00004701  00000000  00000000  00060c8c  2**0
                  CONTENTS, READONLY, DEBUGGING
 15 .debug_loc    000184ac  00000000  00000000  0006538d  2**0
                  CONTENTS, READONLY, DEBUGGING
 16 .debug_alt_sim_info 00000060  00000000  00000000  0007d83c  2**2
                  CONTENTS, READONLY, DEBUGGING
 17 .debug_ranges 000019d0  00000000  00000000  0007d8a0  2**3
                  CONTENTS, READONLY, DEBUGGING
 18 .thread_model 00000003  00000000  00000000  0008465a  2**0
                  CONTENTS, READONLY
 19 .cpu          00000003  00000000  00000000  0008465d  2**0
                  CONTENTS, READONLY
 20 .qsys         00000001  00000000  00000000  00084660  2**0
                  CONTENTS, READONLY
 21 .simulation_enabled 00000001  00000000  00000000  00084661  2**0
                  CONTENTS, READONLY
 22 .sysid_hash   00000004  00000000  00000000  00084662  2**0
                  CONTENTS, READONLY
 23 .sysid_base   00000004  00000000  00000000  00084666  2**0
                  CONTENTS, READONLY
 24 .sysid_time   00000004  00000000  00000000  0008466a  2**0
                  CONTENTS, READONLY
 25 .stderr_dev   00000009  00000000  00000000  0008466e  2**0
                  CONTENTS, READONLY
 26 .stdin_dev    00000009  00000000  00000000  00084677  2**0
                  CONTENTS, READONLY
 27 .stdout_dev   00000009  00000000  00000000  00084680  2**0
                  CONTENTS, READONLY
 28 .sopc_system_name 0000000c  00000000  00000000  00084689  2**0
                  CONTENTS, READONLY
 29 .quartus_project_dir 0000002c  00000000  00000000  00084695  2**0
                  CONTENTS, READONLY
 30 .jdi          00004152  00000000  00000000  000846c1  2**0
                  CONTENTS, READONLY
 31 .sopcinfo     0006b318  00000000  00000000  00088813  2**0
                  CONTENTS, READONLY
SYMBOL TABLE:
00800000 l    d  .entry	00000000 .entry
00800020 l    d  .exceptions	00000000 .exceptions
00800244 l    d  .text	00000000 .text
00814d74 l    d  .rodata	00000000 .rodata
0081543c l    d  .rwdata	00000000 .rwdata
00818e1c l    d  .bss	00000000 .bss
00819134 l    d  .sdram	00000000 .sdram
01080000 l    d  .onchip_mem	00000000 .onchip_mem
00000000 l    d  .comment	00000000 .comment
00000000 l    d  .debug_aranges	00000000 .debug_aranges
00000000 l    d  .debug_info	00000000 .debug_info
00000000 l    d  .debug_abbrev	00000000 .debug_abbrev
00000000 l    d  .debug_line	00000000 .debug_line
00000000 l    d  .debug_frame	00000000 .debug_frame
00000000 l    d  .debug_str	00000000 .debug_str
00000000 l    d  .debug_loc	00000000 .debug_loc
00000000 l    d  .debug_alt_sim_info	00000000 .debug_alt_sim_info
00000000 l    d  .debug_ranges	00000000 .debug_ranges
00000000 l    df *ABS*	00000000 ../Pacemaker_bsp//obj/HAL/src/crt0.o
0080028c l       .text	00000000 alt_after_alt_main
00000000 l    df *ABS*	00000000 alt_irq_handler.c
00000000 l    df *ABS*	00000000 alt_instruction_exception_entry.c
00000000 l    df *ABS*	00000000 pacemaker.c
00000000 l    df *ABS*	00000000 pacemaker_fsm.c
00000000 l    df *ABS*	00000000 fopen.c
00000000 l    df *ABS*	00000000 fseek.c
00000000 l    df *ABS*	00000000 fseeko.c
00000000 l    df *ABS*	00000000 fstatr.c
00000000 l    df *ABS*	00000000 fwrite.c
00000000 l    df *ABS*	00000000 impure.c
00815454 l     O .rwdata	00000424 impure_data
00000000 l    df *ABS*	00000000 int_errno.c
00000000 l    df *ABS*	00000000 makebuf.c
00000000 l    df *ABS*	00000000 mallocr.c
00000000 l    df *ABS*	00000000 memset.c
00000000 l    df *ABS*	00000000 openr.c
00000000 l    df *ABS*	00000000 printf.c
00000000 l    df *ABS*	00000000 puts.c
00000000 l    df *ABS*	00000000 refill.c
00804ba0 l     F .text	0000001c lflush
00000000 l    df *ABS*	00000000 sbrkr.c
00000000 l    df *ABS*	00000000 stdio.c
00000000 l    df *ABS*	00000000 strlen.c
00000000 l    df *ABS*	00000000 vfprintf.c
00814ef6 l     O .rodata	00000010 zeroes.4404
008071cc l     F .text	000000bc __sbprintf
00814f06 l     O .rodata	00000010 blanks.4403
00000000 l    df *ABS*	00000000 writer.c
00000000 l    df *ABS*	00000000 wsetup.c
00000000 l    df *ABS*	00000000 closer.c
00000000 l    df *ABS*	00000000 dtoa.c
00807490 l     F .text	00000200 quorem
00000000 l    df *ABS*	00000000 fflush.c
00000000 l    df *ABS*	00000000 findfp.c
00808fc0 l     F .text	00000008 __fp_unlock
00808fd4 l     F .text	0000019c __sinit.part.1
00809170 l     F .text	00000008 __fp_lock
00000000 l    df *ABS*	00000000 flags.c
00000000 l    df *ABS*	00000000 mallocr.c
00000000 l    df *ABS*	00000000 fvwrite.c
00000000 l    df *ABS*	00000000 fwalk.c
00000000 l    df *ABS*	00000000 isattyr.c
00000000 l    df *ABS*	00000000 locale.c
00815ca0 l     O .rwdata	00000020 lc_ctype_charset
00815c80 l     O .rwdata	00000020 lc_message_charset
00815cc0 l     O .rwdata	00000038 lconv
00000000 l    df *ABS*	00000000 lseekr.c
00000000 l    df *ABS*	00000000 memchr.c
00000000 l    df *ABS*	00000000 memcpy.c
00000000 l    df *ABS*	00000000 memmove.c
00000000 l    df *ABS*	00000000 mprec.c
00814f34 l     O .rodata	0000000c p05.2768
00000000 l    df *ABS*	00000000 readr.c
00000000 l    df *ABS*	00000000 mallocr.c
00000000 l    df *ABS*	00000000 s_fpclassify.c
00000000 l    df *ABS*	00000000 strcmp.c
00000000 l    df *ABS*	00000000 vfprintf.c
0080baac l     F .text	000000fc __sprint_r.part.0
00815068 l     O .rodata	00000010 blanks.4348
00815058 l     O .rodata	00000010 zeroes.4349
0080d038 l     F .text	000000bc __sbprintf
00000000 l    df *ABS*	00000000 mallocr.c
00000000 l    df *ABS*	00000000 fclose.c
00000000 l    df *ABS*	00000000 fputwc.c
00000000 l    df *ABS*	00000000 wbuf.c
00000000 l    df *ABS*	00000000 wcrtomb.c
00000000 l    df *ABS*	00000000 wctomb_r.c
00000000 l    df *ABS*	00000000 libgcc2.c
00000000 l    df *ABS*	00000000 libgcc2.c
00000000 l    df *ABS*	00000000 lib2-divmod.c
00000000 l    df *ABS*	00000000 adddf3.c
00000000 l    df *ABS*	00000000 divdf3.c
00000000 l    df *ABS*	00000000 eqdf2.c
00000000 l    df *ABS*	00000000 gedf2.c
00000000 l    df *ABS*	00000000 ledf2.c
00000000 l    df *ABS*	00000000 muldf3.c
00000000 l    df *ABS*	00000000 subdf3.c
00000000 l    df *ABS*	00000000 fixdfsi.c
00000000 l    df *ABS*	00000000 floatsidf.c
00000000 l    df *ABS*	00000000 floatunsidf.c
00000000 l    df *ABS*	00000000 libgcc2.c
00000000 l    df *ABS*	00000000 libgcc2.c
00000000 l    df *ABS*	00000000 alt_close.c
00810ad0 l     F .text	0000003c alt_get_errno
00000000 l    df *ABS*	00000000 alt_dev.c
00810bdc l     F .text	0000002c alt_dev_null_write
00000000 l    df *ABS*	00000000 alt_errno.c
00000000 l    df *ABS*	00000000 alt_fstat.c
00810c08 l     F .text	0000003c alt_get_errno
00000000 l    df *ABS*	00000000 alt_irq_register.c
00000000 l    df *ABS*	00000000 alt_irq_vars.c
00000000 l    df *ABS*	00000000 alt_isatty.c
00810e74 l     F .text	0000003c alt_get_errno
00000000 l    df *ABS*	00000000 alt_load.c
00810f54 l     F .text	00000068 alt_load_section
00000000 l    df *ABS*	00000000 alt_lseek.c
00811040 l     F .text	0000003c alt_get_errno
00000000 l    df *ABS*	00000000 alt_main.c
00000000 l    df *ABS*	00000000 alt_malloc_lock.c
00000000 l    df *ABS*	00000000 alt_open.c
00811214 l     F .text	0000003c alt_get_errno
00811250 l     F .text	000000c4 alt_file_locked
00000000 l    df *ABS*	00000000 alt_read.c
00811468 l     F .text	0000003c alt_get_errno
00000000 l    df *ABS*	00000000 alt_release_fd.c
00000000 l    df *ABS*	00000000 alt_sbrk.c
00817118 l     O .rwdata	00000004 heap_end
00000000 l    df *ABS*	00000000 alt_tick.c
00000000 l    df *ABS*	00000000 alt_write.c
00811858 l     F .text	0000003c alt_get_errno
00000000 l    df *ABS*	00000000 alt_sys_init.c
0081198c l     F .text	00000034 alt_dev_reg
00815ea0 l     O .rwdata	00001060 jtag_uart
00816f00 l     O .rwdata	00000120 lcd
00817020 l     O .rwdata	000000c4 uart
00000000 l    df *ABS*	00000000 altera_avalon_jtag_uart_fd.c
00000000 l    df *ABS*	00000000 altera_avalon_jtag_uart_init.c
00811cb8 l     F .text	0000020c altera_avalon_jtag_uart_irq
00811ec4 l     F .text	000000a0 altera_avalon_jtag_uart_timeout
00000000 l    df *ABS*	00000000 altera_avalon_jtag_uart_ioctl.c
00000000 l    df *ABS*	00000000 altera_avalon_jtag_uart_read.c
00000000 l    df *ABS*	00000000 altera_avalon_jtag_uart_write.c
00000000 l    df *ABS*	00000000 altera_avalon_lcd_16207.c
00817124 l     O .rwdata	00000004 colstart
008124fc l     F .text	000000b8 lcd_write_command
008125b4 l     F .text	000000d8 lcd_write_data
0081268c l     F .text	000000d0 lcd_clear_screen
0081275c l     F .text	000001ec lcd_repaint_screen
00812948 l     F .text	000000cc lcd_scroll_up
00812a14 l     F .text	000002ac lcd_handle_escape
00813198 l     F .text	000000ac alt_lcd_16207_timeout
00000000 l    df *ABS*	00000000 altera_avalon_lcd_16207_fd.c
00000000 l    df *ABS*	00000000 altera_avalon_timer_sc.c
008133d8 l     F .text	00000078 alt_avalon_timer_sc_irq
00000000 l    df *ABS*	00000000 altera_avalon_uart_fd.c
00000000 l    df *ABS*	00000000 altera_avalon_uart_init.c
00813688 l     F .text	0000009c altera_avalon_uart_irq
00813724 l     F .text	000000e4 altera_avalon_uart_rxirq
00813808 l     F .text	00000148 altera_avalon_uart_txirq
00000000 l    df *ABS*	00000000 altera_avalon_uart_read.c
008139a4 l     F .text	0000003c alt_get_errno
00000000 l    df *ABS*	00000000 altera_avalon_uart_write.c
00813bbc l     F .text	0000003c alt_get_errno
00000000 l    df *ABS*	00000000 alt_alarm_start.c
00000000 l    df *ABS*	00000000 alt_dcache_flush_all.c
00000000 l    df *ABS*	00000000 alt_dev_llist_insert.c
00813f18 l     F .text	0000003c alt_get_errno
00000000 l    df *ABS*	00000000 alt_do_ctors.c
00000000 l    df *ABS*	00000000 alt_do_dtors.c
00000000 l    df *ABS*	00000000 alt_find_dev.c
00000000 l    df *ABS*	00000000 alt_find_file.c
00000000 l    df *ABS*	00000000 alt_get_fd.c
00000000 l    df *ABS*	00000000 alt_icache_flush_all.c
00000000 l    df *ABS*	00000000 alt_iic.c
00000000 l    df *ABS*	00000000 alt_iic_isr_register.c
00000000 l    df *ABS*	00000000 alt_io_redirect.c
008145c8 l     F .text	000000c4 alt_open_fd
00000000 l    df *ABS*	00000000 alt_usleep.c
00000000 l    df *ABS*	00000000 altera_nios2_gen2_irq.c
00000000 l    df *ABS*	00000000 alt_busy_sleep.c
00000000 l    df *ABS*	00000000 alt_icache_flush.c
00000000 l    df *ABS*	00000000 atexit.c
00000000 l    df *ABS*	00000000 ctype_.c
008152bb l     O .rodata	00000180 _ctype_b
00000000 l    df *ABS*	00000000 exit.c
00000000 l    df *ABS*	00000000 memcmp.c
00000000 l    df *ABS*	00000000 __atexit.c
00000000 l    df *ABS*	00000000 __call_atexit.c
00000000 l    df *ABS*	00000000 alt_exit.c
00818fa8 g     O .bss	00000004 alt_instruction_exception_handler
008003d8 g     F .text	0000006c timeout_checker
00818e38 g     O .bss	00000001 g83
00818e39 g     O .bss	00000001 g40
0080b220 g     F .text	00000074 _mprec_log10
0080b30c g     F .text	0000008c __any_on
00809e84 g     F .text	00000054 _isatty_r
00814f40 g     O .rodata	00000028 __mprec_tinytens
00818e3a g     O .bss	00000001 g91
00811150 g     F .text	0000007c alt_main
00818e3b g     O .bss	00000001 PRE_g112
00804acc g     F .text	000000c0 _puts_r
00819034 g     O .bss	00000100 alt_irq
00809fb4 g     F .text	00000060 _lseek_r
00818e3c g     O .bss	00000001 g139
00818e3d g     O .bss	00000001 g4
0081712c g       *ABS*	00000000 __flash_rwdata_start
00818e3e g     O .bss	00000001 g108
00818e3f g     O .bss	00000001 g19
00818e40 g     O .bss	00000001 g152
00818e41 g     O .bss	00000001 g111
00809360 g     F .text	000000ac __sflags
0080f5fc g     F .text	00000088 .hidden __eqdf2
00818e42 g     O .bss	00000001 PRE_g38
00818e43 g     O .bss	00000001 PRE_g122
00818e44 g     O .bss	00000001 g148_fix0
00819134 g       *ABS*	00000000 __alt_heap_start
00818e28 g     O .bss	00000004 asense_flag_mode_2
00804a90 g     F .text	0000003c printf
00818e45 g     O .bss	00000001 PRE_g134
0080d61c g     F .text	0000009c _wcrtomb_r
00804ebc g     F .text	0000005c __sseek
00809310 g     F .text	00000010 __sinit
0080d4c4 g     F .text	00000140 __swbuf_r
00818e46 g     O .bss	00000001 g55
00818e47 g     O .bss	00000001 g117_e8
00818e48 g     O .bss	00000001 _cg59
00818e49 g     O .bss	00000001 g27
00818e30 g     O .bss	00000004 lcd
00809ed8 g     F .text	0000007c _setlocale_r
00809178 g     F .text	00000068 __sfmoreglue
008111f0 g     F .text	00000024 __malloc_unlock
00818e4a g     O .bss	00000001 g113b
00818e4b g     O .bss	00000001 g152_e2
00818e4c g     O .bss	00000001 g153
00818e4d g     O .bss	00000001 g112
00818e4e g     O .bss	00000001 g3
00818e4f g     O .bss	00000001 AEI_ex
0080a240 g     F .text	0000015c memmove
00818e50 g     O .bss	00000001 g146
00818e51 g     O .bss	00000001 g103
00818e52 g     O .bss	00000001 PRE_g27
00818e53 g     O .bss	00000001 g47
00818e54 g     O .bss	00000001 g85
00818e55 g     O .bss	00000001 g42
008092f8 g     F .text	00000018 _cleanup
00818e56 g     O .bss	00000001 PRE_g114
0080a39c g     F .text	000000a8 _Balloc
00818e57 g     O .bss	00000001 g9
00818e58 g     O .bss	00000001 g127
00818e5c g     O .bss	00000004 _PRE_GO
00818e60 g     O .bss	00000001 PRE_g142
00818e61 g     O .bss	00000001 PRE_g3
00818e62 g     O .bss	00000001 g145
00818e63 g     O .bss	00000001 g102
00818e64 g     O .bss	00000001 g140
0080f684 g     F .text	000000dc .hidden __gtdf2
00814738 g     F .text	00000024 altera_nios2_gen2_irq_init
00818e65 g     O .bss	00000001 _cg128
00818e66 g     O .bss	00000001 g115
00800000 g     F .entry	0000001c __reset
00818e67 g     O .bss	00000001 _cg15
0080047c g     F .text	000000b0 transmit_string
00818e68 g     O .bss	00000001 _cg123
00800290 g     F .text	00000094 get_heart_signals
00800020 g       *ABS*	00000000 __flash_exceptions_start
00803db4 g     F .text	0000005c _fstat_r
00818f74 g     O .bss	00000004 errno
00818e69 g     O .bss	00000001 _cg73
00818e6a g     O .bss	00000001 g87
00818e6b g     O .bss	00000001 g44
00804e38 g     F .text	00000008 __seofread
00818e6c g     O .bss	00000001 g150
00818e6d g     O .bss	00000001 _cg79
00818e6e g     O .bss	00000001 g123
00818f98 g     O .bss	00000004 alt_argv
0081f0e4 g       *ABS*	00000000 _gp
00814708 g     F .text	00000030 usleep
00818e6f g     O .bss	00000001 _cg45
00800ad0 g     F .text	000000b0 reset
00818e70 g     O .bss	00000001 PRE_g65
00818e71 g     O .bss	00000001 g92
00818e72 g     O .bss	00000001 Vpace
00818e73 g     O .bss	00000001 g1
00818e74 g     O .bss	00000001 g61
00815d20 g     O .rwdata	00000180 alt_fd_list
00818e75 g     O .bss	00000001 g135
00818e76 g     O .bss	00000001 g71
00818e77 g     O .bss	00000001 g131b
008140b8 g     F .text	00000090 alt_find_dev
0080a0f8 g     F .text	00000148 memcpy
00818e78 g     O .bss	00000001 g126
00808fc8 g     F .text	0000000c _cleanup_r
008108e8 g     F .text	000000dc .hidden __floatsidf
00818e79 g     O .bss	00000001 g82
0081468c g     F .text	0000007c alt_io_redirect
0080f760 g     F .text	000000f4 .hidden __ltdf2
00814d74 g       *ABS*	00000000 __DTOR_END__
00818e7a g     O .bss	00000001 _cg98
00800444 g     F .text	00000038 test_and_set
00818e7b g     O .bss	00000001 g12
00804b8c g     F .text	00000014 puts
00814944 g     F .text	0000009c alt_exception_cause_generated_bad_addr
00818e7c g     O .bss	00000001 g97
00818e7d g     O .bss	00000001 g52
00818e7e g     O .bss	00000001 g140_e11
00818e7f g     O .bss	00000001 g148_e1_fix
0080b95c g     F .text	00000074 __fpclassifyd
0080b17c g     F .text	000000a4 __ratio
0080d01c g     F .text	0000001c __vfiprintf_internal
00818e80 g     O .bss	00000001 _cg85
008120bc g     F .text	0000021c altera_avalon_jtag_uart_read
00804a60 g     F .text	00000030 _printf_r
0080e3ac g     F .text	00000064 .hidden __udivsi3
00810eb0 g     F .text	000000a4 isatty
00818e81 g     O .bss	00000001 g17
00818e82 g     O .bss	00000001 g132_e10
00814f90 g     O .rodata	000000c8 __mprec_tens
00809f54 g     F .text	0000000c __locale_charset
00818e83 g     O .bss	00000001 g76
00818e84 g     O .bss	00000001 g31
008148b4 g     F .text	00000090 alt_icache_flush
00818e85 g     O .bss	00000001 g37
00818f80 g     O .bss	00000004 __malloc_top_pad
008170f4 g     O .rwdata	00000004 __mb_cur_max
00818e86 g     O .bss	00000001 g50_e3
00809f84 g     F .text	0000000c _localeconv_r
00818e87 g     O .bss	00000001 g62
0080a7a8 g     F .text	0000003c __i2b
00809840 g     F .text	000004bc __sfvwrite_r
00818e88 g     O .bss	00000001 reset_LRI
00804d90 g     F .text	00000054 _sbrk_r
00818e89 g     O .bss	00000001 g84
00818e8a g     O .bss	00000001 g41
00818e8b g     O .bss	00000001 _cg26
00818e8c g     O .bss	00000001 g118
00818e8d g     O .bss	00000001 PRE_g40
00818e8e g     O .bss	00000001 start_VRP
0080b398 g     F .text	00000060 _read_r
0081710c g     O .rwdata	00000004 alt_max_fd
00818e8f g     O .bss	00000001 PRE_g8
0080d1b8 g     F .text	000000f0 _fclose_r
00808f90 g     F .text	00000030 fflush
00818f7c g     O .bss	00000004 __malloc_max_sbrked_mem
00818fec g     O .bss	00000018 timer_expired_flags
00818e90 g     O .bss	00000001 g18
00810cf4 g     F .text	00000180 alt_irq_register
00818e91 g     O .bss	00000001 PRE_g81
00818e92 g     O .bss	00000001 g148_fix2
0080e468 g     F .text	000008ac .hidden __adddf3
00818e93 g     O .bss	00000001 PRE_g104
00818e94 g     O .bss	00000001 _cg101
00818e95 g     O .bss	00000001 g132
0080af24 g     F .text	0000010c __b2d
00818e96 g     O .bss	00000001 PVARP_counting
0080dd7c g     F .text	00000538 .hidden __umoddi3
0081107c g     F .text	000000d4 lseek
008170e4 g     O .rwdata	00000004 _global_impure_ptr
00818e97 g     O .bss	00000001 g48
00818e98 g     O .bss	00000001 PRE_g78
00818e99 g     O .bss	00000001 PRE_g35
0080b3f8 g     F .text	00000564 _realloc_r
00819134 g       *ABS*	00000000 __bss_end
008144d8 g     F .text	000000f0 alt_iic_isr_register
00818e9a g     O .bss	00000001 VR
00811750 g     F .text	00000108 alt_tick
00818e9b g     O .bss	00000001 _cg95
0080d804 g     F .text	00000578 .hidden __udivdi3
00818e9c g     O .bss	00000001 g33_e2
0080d420 g     F .text	00000024 _fputwc_r
00814f68 g     O .rodata	00000028 __mprec_bigtens
0080a58c g     F .text	00000104 __s2b
008109c4 g     F .text	000000a8 .hidden __floatunsidf
00818e9d g     O .bss	00000001 g38
00818e9e g     O .bss	00000001 g148
00818e9f g     O .bss	00000001 g105
0080ac64 g     F .text	00000060 __mcmp
008135dc g     F .text	000000ac altera_avalon_uart_init
00818ea0 g     O .bss	00000001 _cg97
00818ea1 g     O .bss	00000001 URI_counting
00809330 g     F .text	00000018 __fp_lock_all
0081448c g     F .text	0000004c alt_ic_irq_enabled
008116b4 g     F .text	0000009c alt_alarm_stop
00818ea2 g     O .bss	00000001 PRE_g144
00818f90 g     O .bss	00000004 alt_irq_active
00803954 g     F .text	00000444 _fseeko_r
00818ea3 g     O .bss	00000001 g117
01080000 g       *ABS*	00000000 __alt_mem_onchip_mem
008000fc g     F .exceptions	000000d4 alt_irq_handler
00815cf8 g     O .rwdata	00000028 alt_dev_null
00818ea4 g     O .bss	00000001 LRI_counting
00818ea5 g     O .bss	00000001 g85b
00818ea6 g     O .bss	00000001 _cg82
00818ea7 g     O .bss	00000001 _cg43
00818ea8 g     O .bss	00000001 start_AVI
00818ea9 g     O .bss	00000001 stop_AVI
00813ed0 g     F .text	00000048 alt_dcache_flush_all
0080a690 g     F .text	00000068 __hi0bits
00818eaa g     O .bss	00000001 _cg63
00818eab g     O .bss	00000001 _cg28
00810868 g     F .text	00000080 .hidden __fixdfsi
00818eac g     O .bss	00000001 g64
00818ead g     O .bss	00000001 g21
00818eae g     O .bss	00000001 g74b
00818eaf g     O .bss	00000001 _cg14
00818eb0 g     O .bss	00000001 PRE_g55
00818eb1 g     O .bss	00000001 PRE_g12
00818eb2 g     O .bss	00000001 _cg68
00818eb3 g     O .bss	00000001 g79
00818eb4 g     O .bss	00000001 g34
0081712c g       *ABS*	00000000 __ram_rwdata_end
00818eb5 g     O .bss	00000001 g5
00817104 g     O .rwdata	00000008 alt_dev_list
00818eb6 g     O .bss	00000001 g94
00818eb7 g     O .bss	00000001 g151
00818eb8 g     O .bss	00000001 g110
00818eb9 g     O .bss	00000001 g49
00811894 g     F .text	000000f8 write
00818eba g     O .bss	00000001 g2
00818ebb g     O .bss	00000001 g7
00818ebc g     O .bss	00000001 _cg90
00818ebd g     O .bss	00000001 _cg53
0081543c g       *ABS*	00000000 __ram_rodata_end
00810c44 g     F .text	000000b0 fstat
0080f760 g     F .text	000000f4 .hidden __ledf2
00818ebe g     O .bss	00000001 g60_e4
00818ebf g     O .bss	00000001 LRI_ex
00818ec0 g     O .bss	00000001 g80
00818ec1 g     O .bss	00000001 PRE_g25
0080a9dc g     F .text	00000140 __pow5mult
0080bbc0 g     F .text	0000145c ___vfiprintf_internal_r
00818f8c g     O .bss	00000004 __nlocale_changed
0080e410 g     F .text	00000058 .hidden __umodsi3
00818ec2 g     O .bss	00000001 g128
00818ec3 g     O .bss	00000001 g136
00819134 g       *ABS*	00000000 end
00818ec4 g     O .bss	00000001 stop_AEI
00818ec5 g     O .bss	00000001 g143
00818ec6 g     O .bss	00000001 g100
00812cc0 g     F .text	000004d8 altera_avalon_lcd_16207_write
00818ec7 g     O .bss	00000001 g120b
00803d98 g     F .text	0000001c fseeko
00818ec8 g     O .bss	00000001 Vsense
00818ec9 g     O .bss	00000001 g59
00818eca g     O .bss	00000001 g99
00818ecb g     O .bss	00000001 g54
00813bf8 g     F .text	000001ac altera_avalon_uart_write
00803938 g     F .text	0000001c fseek
00818ecc g     O .bss	00000001 g66
00818ecd g     O .bss	00000001 g23
00811bf8 g     F .text	000000c0 altera_avalon_jtag_uart_init
008001d0 g     F .exceptions	00000074 alt_instruction_exception_entry
00818ece g     O .bss	00000001 _cg83
00818ecf g     O .bss	00000001 _cg44
00814d74 g       *ABS*	00000000 __CTOR_LIST__
01000000 g       *ABS*	00000000 __alt_stack_pointer
00818ed0 g     O .bss	00000001 _cg87
00818ed1 g     O .bss	00000001 g148_e1_fix_fix
00813450 g     F .text	0000007c alt_avalon_timer_sc_init
0081352c g     F .text	00000060 altera_avalon_uart_write_fd
00810a6c g     F .text	00000064 .hidden __clzsi2
0081358c g     F .text	00000050 altera_avalon_uart_close_fd
008122d8 g     F .text	00000224 altera_avalon_jtag_uart_write
00809320 g     F .text	00000004 __sfp_lock_acquire
0080a014 g     F .text	000000e4 memchr
00818ed2 g     O .bss	00000001 g14
00804fb8 g     F .text	000021f8 ___vfprintf_internal_r
00818ed3 g     O .bss	00000001 PRE_g84
00809530 g     F .text	00000310 _free_r
00818ed4 g     O .bss	00000001 AEI_counting
00809f60 g     F .text	00000010 __locale_mb_cur_max
00818ed5 g     O .bss	00000001 _cg6
00814bc0 g     F .text	00000180 __call_exitprocs
00818ed6 g     O .bss	00000001 Apace
00818ed7 g     O .bss	00000001 AVI_ex
00818ed8 g     O .bss	00000001 g144
00818ed9 g     O .bss	00000001 g101
00818eda g     O .bss	00000001 VRP_ex
00818f88 g     O .bss	00000004 __mlocale_changed
008170ec g     O .rwdata	00000004 __malloc_sbrk_base
00800244 g     F .text	0000004c _start
00818edb g     O .bss	00000001 _cg145
00818edc g     O .bss	00000001 g114
00818fa0 g     O .bss	00000004 _alt_tick_rate
00818edd g     O .bss	00000001 g56
00818ede g     O .bss	00000001 PRE_g52
00818edf g     O .bss	00000001 g129
00818ee0 g     O .bss	00000001 g131
0080ab1c g     F .text	00000148 __lshift
00818fa4 g     O .bss	00000004 _alt_nticks
008114a4 g     F .text	000000fc read
008119f8 g     F .text	0000009c alt_sys_init
00818ee1 g     O .bss	00000001 g78
00818ee2 g     O .bss	00000001 g33
00804a00 g     F .text	00000060 _open_r
00814aa8 g     F .text	00000118 __register_exitproc
00818ee3 g     O .bss	00000001 PRE_g119
00818ee4 g     O .bss	00000001 g122
0081543c g     O .rwdata	00000018 timer_timeout_values
00818ee5 g     O .bss	00000001 URI_ex
0080a7e4 g     F .text	000001f8 __multiply
00811f64 g     F .text	00000068 altera_avalon_jtag_uart_close
00818ee6 g     O .bss	00000001 PRE_g67
00818ee7 g     O .bss	00000001 PRE_g22
0081543c g       *ABS*	00000000 __ram_rwdata_start
00814d74 g       *ABS*	00000000 __ram_rodata_start
00818fc4 g     O .bss	00000028 __malloc_current_mallinfo
0080b030 g     F .text	0000014c __d2b
00818ee8 g     O .bss	00000001 VRP_counting
00818ee9 g     O .bss	00000001 stop_URI
00818eea g     O .bss	00000001 g134
00818eeb g     O .bss	00000001 _cg136
00811a94 g     F .text	00000060 altera_avalon_jtag_uart_read_fd
00818eec g     O .bss	00000001 g35
00814250 g     F .text	000000a4 alt_get_fd
00818eed g     O .bss	00000001 _cg71
0081475c g     F .text	00000158 alt_busy_sleep
00818eee g     O .bss	00000001 g15
0080743c g     F .text	00000054 _close_r
00818eef g     O .bss	00000001 g90
00818ef0 g     O .bss	00000001 _GO
00814a2c g     F .text	0000007c memcmp
00811b54 g     F .text	00000050 altera_avalon_jtag_uart_close_fd
00819134 g       *ABS*	00000000 __alt_stack_base
00811ba4 g     F .text	00000054 altera_avalon_jtag_uart_ioctl_fd
00803e10 g     F .text	000000cc _fwrite_r
00818ef1 g     O .bss	00000001 start_PVARP
008072e8 g     F .text	00000154 __swsetup_r
00818ef2 g     O .bss	00000001 g76_e5
00800b80 g     F .text	00002ca8 tick
0080ed14 g     F .text	000008e8 .hidden __divdf3
008091e0 g     F .text	00000118 __sfp
00818ef3 g     O .bss	00000001 g63
00818ef4 g     O .bss	00000001 g20
00818ef5 g     O .bss	00000001 URI_waiting
0080b294 g     F .text	00000078 __copybits
00818ef6 g     O .bss	00000001 g60
00818ef7 g     O .bss	00000001 PRE_g107
00818ef8 g     O .bss	00000001 _cg121
00815878 g     O .rwdata	00000408 __malloc_av_
0080932c g     F .text	00000004 __sinit_lock_release
00818ef9 g     O .bss	00000001 _cg10
0080f854 g     F .text	00000718 .hidden __muldf3
00804de4 g     F .text	00000054 __sread
00818efa g     O .bss	00000001 g23b
00814148 g     F .text	00000108 alt_find_file
00818efb g     O .bss	00000001 g93
00813f54 g     F .text	000000a4 alt_dev_llist_insert
008111cc g     F .text	00000024 __malloc_lock
00811604 g     F .text	000000b0 sbrk
00818efc g     O .bss	00000001 g119
00808f34 g     F .text	0000005c _fflush_r
0080d0f4 g     F .text	000000c4 _calloc_r
0080391c g     F .text	00000018 fopen
00818e1c g       *ABS*	00000000 __bss_start
00818efd g     O .bss	00000001 g86
00818efe g     O .bss	00000001 g43
008048d8 g     F .text	00000128 memset
0080052c g     F .text	000005a4 main
00818eff g     O .bss	00000001 g148_fix1
00818f9c g     O .bss	00000004 alt_envp
00818f78 g     O .bss	00000004 __malloc_max_total_mem
00811af4 g     F .text	00000060 altera_avalon_jtag_uart_write_fd
0080d604 g     F .text	00000018 __swbuf
00818f00 g     O .bss	00000001 PRE_g62
00818f01 g     O .bss	00000001 g36
00813244 g     F .text	00000134 altera_avalon_lcd_16207_init
00818f02 g     O .bss	00000001 g89
00818f03 g     O .bss	00000001 g46
00804f18 g     F .text	00000008 __sclose
00818f04 g     O .bss	00000001 g125_e9
01000000 g       *ABS*	00000000 __alt_heap_limit
0080d2a8 g     F .text	00000014 fclose
00818f05 g     O .bss	00000001 _cg106
00807690 g     F .text	00001688 _dtoa_r
008040cc g     F .text	0000080c _malloc_r
0080d778 g     F .text	00000030 __ascii_wctomb
00818f06 g     O .bss	00000001 start_AEI
00817110 g     O .rwdata	00000004 alt_errno
00809cfc g     F .text	000000c4 _fwalk
00818f07 g     O .bss	00000001 PRE_g137
00818f08 g     O .bss	00000001 g95
00818f09 g     O .bss	00000001 g50
00818f0a g     O .bss	00000001 g147_e12
00818f0b g     O .bss	00000001 g96
00818f0c g     O .bss	00000001 g51
0080e2b4 g     F .text	00000084 .hidden __divsi3
0080940c g     F .text	00000124 _malloc_trim_r
00818f0d g     O .bss	00000001 start_LRI
00814d74 g       *ABS*	00000000 __CTOR_END__
00818f0e g     O .bss	00000001 g138
0080b9d0 g     F .text	000000dc strcmp
00818f0f g     O .bss	00000001 _cg115
00818f10 g     O .bss	00000001 g107
00814d74 g       *ABS*	00000000 __flash_rodata_start
00818f11 g     O .bss	00000001 g113
00814d74 g       *ABS*	00000000 __DTOR_LIST__
0080f5fc g     F .text	00000088 .hidden __nedf2
00818f12 g     O .bss	00000001 _cg41
008119c0 g     F .text	00000038 alt_irq_init
008115a0 g     F .text	00000064 alt_release_fd
00818f13 g     O .bss	00000001 g147
00818f14 g     O .bss	00000001 g104
00818f15 g     O .bss	00000001 PRE_g130
00818f16 g     O .bss	00000001 g13
00815078 g     O .rodata	00000100 .hidden __clz_tab
00818f84 g     O .bss	00000004 _PathLocale
00818f17 g     O .bss	00000001 g98
00818f18 g     O .bss	00000001 g53
00818f19 g     O .bss	00000001 g8
00818f1a g     O .bss	00000001 g57
00818f1b g     O .bss	00000001 PRE_g89
008149e0 g     F .text	00000014 atexit
00807288 g     F .text	00000060 _write_r
00818e2c g     O .bss	00000004 occupied
00818f1c g     O .bss	00000001 start_URI
00818f1d g     O .bss	00000001 g70
00818f1e g     O .bss	00000001 AR
00818f1f g     O .bss	00000001 _cg66
00818f20 g     O .bss	00000001 _cg47
00809f90 g     F .text	00000018 setlocale
00800324 g     F .text	000000b4 get_uart_contents
00818f21 g     O .bss	00000001 g141
00818f22 g     O .bss	00000001 g116
008170e8 g     O .rwdata	00000004 _impure_ptr
00818f94 g     O .bss	00000004 alt_argc
00818f23 g     O .bss	00000001 g6
00808d18 g     F .text	0000021c __sflush_r
00818f24 g     O .bss	00000001 _cg56
00818f25 g     O .bss	00000001 _cg19
00818e20 g     O .bss	00000004 asense_flag
00814058 g     F .text	00000060 _do_dtors
00809f7c g     F .text	00000008 __locale_cjk_lang
00818f26 g     O .bss	00000001 g72
00803934 g     F .text	00000004 _fseek_r
00818f27 g     O .bss	00000001 g81
00804bbc g     F .text	000001d4 __srefill_r
00818f28 g     O .bss	00000001 PVARP_ex
00800020 g       .exceptions	00000000 alt_irq_entry
0080aec0 g     F .text	00000064 __ulp
00809348 g     F .text	00000018 __fp_unlock_all
00819004 g     O .bss	00000018 timer_state_flags
00818f29 g     O .bss	00000001 g124
00818f2a g     O .bss	00000001 _cg108
00813378 g     F .text	00000060 altera_avalon_lcd_16207_write_fd
00818f2b g     O .bss	00000001 PRE_g150
00818f2c g     O .bss	00000001 _cg13
00818f2d g     O .bss	00000001 _cg9
008170fc g     O .rwdata	00000008 alt_fs_list
00818f2e g     O .bss	00000001 g137
00818f2f g     O .bss	00000001 Asense
00818f30 g     O .bss	00000001 _cg129
00818e24 g     O .bss	00000004 vsense_flag_mode_2
00818f31 g     O .bss	00000001 g0
00818e1c g     O .bss	00000004 vsense_flag
00818f32 g     O .bss	00000001 g128b
00818f33 g     O .bss	00000001 _cg91
00818f34 g     O .bss	00000001 _cg17
00818f35 g     O .bss	00000001 g75
00818f36 g     O .bss	00000001 g30
00800020 g       *ABS*	00000000 __ram_exceptions_start
00809fa8 g     F .text	0000000c localeconv
00818f37 g     O .bss	00000001 stop_PVARP
00818f38 g     O .bss	00000001 _cg30
00818f39 g     O .bss	00000001 g16
00818f3a g     O .bss	00000001 g105b
00814328 g     F .text	00000050 alt_ic_isr_register
00818f3b g     O .bss	00000001 g58
00803edc g     F .text	00000034 fwrite
00818f3c g     O .bss	00000001 _cg57
00818f3d g     O .bss	00000001 g68
00818f3e g     O .bss	00000001 g25
0081712c g       *ABS*	00000000 _edata
008134cc g     F .text	00000060 altera_avalon_uart_read_fd
00818f3f g     O .bss	00000001 PRE_g93
00818f40 g     O .bss	00000001 g142
00819134 g       *ABS*	00000000 _end
00818f41 g     O .bss	00000001 g11
0080d2bc g     F .text	00000164 __fputwc
00800244 g       *ABS*	00000000 __ram_exceptions_end
00811fcc g     F .text	000000f0 altera_avalon_jtag_uart_ioctl
00818f42 g     O .bss	00000001 g65
00818f43 g     O .bss	00000001 g22
00818f44 g     O .bss	00000001 g148_e1
00818f45 g     O .bss	00000001 g28
00818f46 g     O .bss	00000001 _cg138
00818f47 g     O .bss	00000001 g73
00818f48 g     O .bss	00000001 _cg113
00818f49 g     O .bss	00000001 g99b
00814400 g     F .text	0000008c alt_ic_irq_disable
00818f4a g     O .bss	00000001 stop_VRP
00804e40 g     F .text	0000007c __swrite
008170f0 g     O .rwdata	00000004 __malloc_trim_threshold
00809f70 g     F .text	0000000c __locale_msgcharset
008149f4 g     F .text	00000038 exit
00818f4b g     O .bss	00000001 g125
00809dc0 g     F .text	000000c4 _fwalk_reent
0080acc4 g     F .text	000001fc __mdiff
00818f4c g     O .bss	00000001 g77
00818f4d g     O .bss	00000001 g32
00818f4e g     O .bss	00000001 g135b
0080e338 g     F .text	00000074 .hidden __modsi3
00817128 g     O .rwdata	00000004 __ctype_ptr__
00818f4f g     O .bss	00000001 g88
00818f50 g     O .bss	00000001 g45
01000000 g       *ABS*	00000000 __alt_data_end
00800020 g     F .exceptions	00000000 alt_exception
00818e34 g     O .bss	00000004 uart
00809324 g     F .text	00000004 __sfp_lock_release
00818f51 g     O .bss	00000001 g102_e6
00818f52 g     O .bss	00000001 _cg23
00818f53 g     O .bss	00000001 PRE_g127
00800000 g       *ABS*	00000000 __alt_mem_sdram
00818f54 g     O .bss	00000001 g130
008151ba g     O .rodata	00000101 _ctype_
00818f55 g     O .bss	00000001 _cg135
00818f56 g     O .bss	00000001 PRE_g5
00818f57 g     O .bss	00000001 stop_LRI
00813950 g     F .text	00000054 altera_avalon_uart_close
00803828 g     F .text	000000f4 _fopen_r
00814d40 g     F .text	00000034 _exit
00818f58 g     O .bss	00000001 g148_fix3
00813da4 g     F .text	0000012c alt_alarm_start
00818f59 g     O .bss	00000001 g121
00818f5a g     O .bss	00000001 g143b
00803f10 g     F .text	000001bc __smakebuf_r
00804f20 g     F .text	00000098 strlen
00818f5b g     O .bss	00000001 g39
0081901c g     O .bss	00000018 timer_start_flags
00811314 g     F .text	00000154 open
0080f684 g     F .text	000000dc .hidden __gedf2
00818f5c g     O .bss	00000001 _cg49
00818f5d g     O .bss	00000001 g120
008170f8 g     O .rwdata	00000004 __wctomb
00818f5e g     O .bss	00000001 _cg120
0080bba8 g     F .text	00000018 __sprint_r
008142f4 g     F .text	00000034 alt_icache_flush_all
00818f5f g     O .bss	00000001 g29
00818f60 g     O .bss	00000001 _cg4
00818f61 g     O .bss	00000001 g67
00818f62 g     O .bss	00000001 g24
00818f63 g     O .bss	00000001 g133
00818f64 g     O .bss	00000001 g20_e1
00817114 g     O .rwdata	00000004 alt_priority_mask
00818f65 g     O .bss	00000001 g109
00818f66 g     O .bss	00000001 _cg143
00818f67 g     O .bss	00000001 _cg32
00818fac g     O .bss	00000018 timer_fist_timeStamp_Value
00814378 g     F .text	00000088 alt_ic_irq_enable
008071b0 g     F .text	0000001c __vfprintf_internal
008139e0 g     F .text	000001dc altera_avalon_uart_read
0080d7a8 g     F .text	0000005c _wctomb_r
00818f68 g     O .bss	00000001 AVI_counting
0080ff6c g     F .text	000008fc .hidden __subdf3
00818f69 g     O .bss	00000001 g149
00818f6a g     O .bss	00000001 g106
00818f6b g     O .bss	00000001 _cg36
0080a6f8 g     F .text	000000b0 __lo0bits
00818f6c g     O .bss	00000001 g10
0081711c g     O .rwdata	00000008 alt_alarm_list
00813ff8 g     F .text	00000060 _do_ctors
0080d6b8 g     F .text	000000c0 wcrtomb
00818f6d g     O .bss	00000001 g69
00818f6e g     O .bss	00000001 g26
00810b0c g     F .text	000000d0 close
00818f6f g     O .bss	00000001 g110_e7
00818f70 g     O .bss	00000001 g13b
00810fbc g     F .text	00000084 alt_load
00818f71 g     O .bss	00000001 _cg39
0080d444 g     F .text	00000080 fputwc
00809328 g     F .text	00000004 __sinit_lock_acquire
00818f72 g     O .bss	00000001 _cg105
0080a46c g     F .text	00000120 __multadd
0080a444 g     F .text	00000028 _Bfree
00818f73 g     O .bss	00000001 g74



Disassembly of section .entry:

00800000 <__reset>:
#if NIOS2_ICACHE_SIZE > 0 && defined(ALT_ALLOW_CODE_AT_RESET) && (!defined(ALT_SIM_OPTIMIZE) || defined(NIOS2_ECC_PRESENT))
    /* Assume the instruction cache size is always a power of two. */
#if NIOS2_ICACHE_SIZE > 0x8000
    movhi r2, %hi(NIOS2_ICACHE_SIZE)
#else
    movui r2, NIOS2_ICACHE_SIZE
  800000:	00840014 	movui	r2,4096
#endif

0:
    initi r2
  800004:	1001483a 	initi	r2
    addi r2, r2, -NIOS2_ICACHE_LINE_SIZE
  800008:	10bff804 	addi	r2,r2,-32
    bgt r2, zero, 0b
  80000c:	00bffd16 	blt	zero,r2,800004 <__alt_mem_onchip_mem+0xff780004>
 * Jump to the _start entry point in the .text section if reset code
 * is allowed or if optimizing for RTL simulation.
 */
#if defined(ALT_ALLOW_CODE_AT_RESET) || defined(ALT_SIM_OPTIMIZE)
    /* Jump to the _start entry point in the .text section. */
    movhi r1, %hi(_start)
  800010:	00402034 	movhi	at,128
    ori r1, r1, %lo(_start)
  800014:	08409114 	ori	at,at,580
    jmp r1
  800018:	0800683a 	jmp	at
  80001c:	00000000 	call	0 <__alt_mem_sdram-0x800000>

Disassembly of section .exceptions:

00800020 <alt_exception>:

#else /* ALT_EXCEPTION_STACK disabled */
        /* 
         * Reserve space on normal stack for registers about to be pushed.
         */
        addi  sp, sp, -76
  800020:	deffed04 	addi	sp,sp,-76
         * documentation for details).
         *
         * Leave a gap in the stack frame at 4(sp) for the muldiv handler to
         * store zero into.
         */
        stw   ra,  0(sp)
  800024:	dfc00015 	stw	ra,0(sp)
        stw   r1,   8(sp)
  800028:	d8400215 	stw	at,8(sp)
        stw   r2,  12(sp)
  80002c:	d8800315 	stw	r2,12(sp)
        stw   r3,  16(sp)
  800030:	d8c00415 	stw	r3,16(sp)
        stw   r4,  20(sp)
  800034:	d9000515 	stw	r4,20(sp)
        stw   r5,  24(sp)
  800038:	d9400615 	stw	r5,24(sp)
        stw   r6,  28(sp)
  80003c:	d9800715 	stw	r6,28(sp)
        stw   r7,  32(sp)
  800040:	d9c00815 	stw	r7,32(sp)
        rdctl r5, estatus   /* Read early to avoid usage stall */
  800044:	000b307a 	rdctl	r5,estatus
        stw   r8,  36(sp)
  800048:	da000915 	stw	r8,36(sp)
        stw   r9,  40(sp)
  80004c:	da400a15 	stw	r9,40(sp)
        stw   r10, 44(sp)
  800050:	da800b15 	stw	r10,44(sp)
        stw   r11, 48(sp)
  800054:	dac00c15 	stw	r11,48(sp)
        stw   r12, 52(sp)
  800058:	db000d15 	stw	r12,52(sp)
        stw   r13, 56(sp)
  80005c:	db400e15 	stw	r13,56(sp)
        stw   r14, 60(sp)
  800060:	db800f15 	stw	r14,60(sp)
        stw   r15, 64(sp)
  800064:	dbc01015 	stw	r15,64(sp)
        /*
         * ea-4 contains the address of the instruction being executed
         * when the exception occured. For interrupt exceptions, we will
         * will be re-issue the isntruction. Store it in 72(sp)
         */
        stw   r5,  68(sp)  /* estatus */
  800068:	d9401115 	stw	r5,68(sp)
        addi  r15, ea, -4  /* instruction that caused exception */
  80006c:	ebffff04 	addi	r15,ea,-4
        stw   r15,  72(sp)
  800070:	dbc01215 	stw	r15,72(sp)
#else
        /*
         * Test to see if the exception was a software exception or caused 
         * by an external interrupt, and vector accordingly.
         */
        rdctl r4, ipending
  800074:	0009313a 	rdctl	r4,ipending
        andi  r2, r5, 1
  800078:	2880004c 	andi	r2,r5,1
        beq   r2, zero, .Lnot_irq
  80007c:	10000326 	beq	r2,zero,80008c <alt_exception+0x6c>
        beq   r4, zero, .Lnot_irq
  800080:	20000226 	beq	r4,zero,80008c <alt_exception+0x6c>
        /*
         * Now that all necessary registers have been preserved, call 
         * alt_irq_handler() to process the interrupts.
         */

        call alt_irq_handler
  800084:	08000fc0 	call	8000fc <alt_irq_handler>

        .section .exceptions.irqreturn, "xa"

        br    .Lexception_exit
  800088:	00000706 	br	8000a8 <alt_exception+0x88>
         * upon completion, so we write ea (address of instruction *after*
         * the one where the exception occured) into 72(sp). The actual
         * instruction that caused the exception is written in r2, which these
         * handlers will utilize.
         */
        stw ea, 72(sp) /* EA is PC+4 so will skip over instruction causing exception */
  80008c:	df401215 	stw	ea,72(sp)
.Lunknown_16bit:
        addi.n r4, r4, 2 /* Need PC+2 to skip over instruction causing exception */
        stw r4, 72(sp)

#else /* CDX is not Enabled and all instructions are 32bits */
        ldw r2, -4(ea) /* Instruction value that caused exception */
  800090:	e8bfff17 	ldw	r2,-4(ea)
         * debugger is present) or go into an infinite loop since the
         * handling behavior is undefined; in that case we will not return here.
         */

        /* Load exception-causing address as first argument (r4) */
        addi   r4, ea, -4
  800094:	e93fff04 	addi	r4,ea,-4

        /* Call the instruction-exception entry */
        call   alt_instruction_exception_entry
  800098:	08001d00 	call	8001d0 <alt_instruction_exception_entry>
         * instruction
         *
         * Return code was 0: Skip. The instruction after the exception is
         * already stored in 72(sp).
         */
        bne   r2, r0, .Lexception_exit
  80009c:	1000021e 	bne	r2,zero,8000a8 <alt_exception+0x88>

        /*
         * Otherwise, modify 72(sp) to re-issue the instruction that caused the
         * exception.
         */
        addi  r15, ea, -4  /* instruction that caused exception */
  8000a0:	ebffff04 	addi	r15,ea,-4
        stw   r15,  72(sp)
  8000a4:	dbc01215 	stw	r15,72(sp)
        /* 
         * Restore the saved registers, so that all general purpose registers 
         * have been restored to their state at the time the interrupt occured.
         */

        ldw   r5,  68(sp)
  8000a8:	d9401117 	ldw	r5,68(sp)
        ldw   ea,  72(sp)  /* This becomes the PC once eret is executed */
  8000ac:	df401217 	ldw	ea,72(sp)
        ldw   ra,   0(sp)
  8000b0:	dfc00017 	ldw	ra,0(sp)

        wrctl estatus, r5
  8000b4:	2801707a 	wrctl	estatus,r5

        ldw   r1,   8(sp)
  8000b8:	d8400217 	ldw	at,8(sp)
        ldw   r2,  12(sp)
  8000bc:	d8800317 	ldw	r2,12(sp)
        ldw   r3,  16(sp)
  8000c0:	d8c00417 	ldw	r3,16(sp)
        ldw   r4,  20(sp)
  8000c4:	d9000517 	ldw	r4,20(sp)
        ldw   r5,  24(sp)
  8000c8:	d9400617 	ldw	r5,24(sp)
        ldw   r6,  28(sp)
  8000cc:	d9800717 	ldw	r6,28(sp)
        ldw   r7,  32(sp)
  8000d0:	d9c00817 	ldw	r7,32(sp)

#if defined(ALT_EXCEPTION_STACK) && defined(ALT_STACK_CHECK)
        ldw   et, %gprel(alt_exception_old_stack_limit)(gp)
#endif

        ldw   r8,  36(sp)
  8000d4:	da000917 	ldw	r8,36(sp)
        ldw   r9,  40(sp)
  8000d8:	da400a17 	ldw	r9,40(sp)
        ldw   r10, 44(sp)
  8000dc:	da800b17 	ldw	r10,44(sp)
        ldw   r11, 48(sp)
  8000e0:	dac00c17 	ldw	r11,48(sp)
        ldw   r12, 52(sp)
  8000e4:	db000d17 	ldw	r12,52(sp)
        ldw   r13, 56(sp)
  8000e8:	db400e17 	ldw	r13,56(sp)
        ldw   r14, 60(sp)
  8000ec:	db800f17 	ldw	r14,60(sp)
        ldw   r15, 64(sp)
  8000f0:	dbc01017 	ldw	r15,64(sp)
        stw   et, %gprel(alt_stack_limit_value)(gp)
        stw   zero, %gprel(alt_exception_old_stack_limit)(gp)
#endif /* ALT_STACK_CHECK */
        ldw   sp,  76(sp)
#else /* ALT_EXCEPTION_STACK disabled */
        addi  sp, sp, 76
  8000f4:	dec01304 	addi	sp,sp,76

        /*
         * Return to the interrupted instruction.
         */

        eret
  8000f8:	ef80083a 	eret

008000fc <alt_irq_handler>:
 * instruction is present if the macro ALT_CI_INTERRUPT_VECTOR defined.
 */

void alt_irq_handler (void) __attribute__ ((section (".exceptions")));
void alt_irq_handler (void)
{
  8000fc:	defff904 	addi	sp,sp,-28
  800100:	dfc00615 	stw	ra,24(sp)
  800104:	df000515 	stw	fp,20(sp)
  800108:	df000504 	addi	fp,sp,20
  
  /*
   * Notify the operating system that we are at interrupt level.
   */ 
  
  ALT_OS_INT_ENTER();
  80010c:	0001883a 	nop
#ifndef NIOS2_EIC_PRESENT
static ALT_INLINE alt_u32 ALT_ALWAYS_INLINE alt_irq_pending (void)
{
  alt_u32 active;

  NIOS2_READ_IPENDING (active);
  800110:	0005313a 	rdctl	r2,ipending
  800114:	e0bffe15 	stw	r2,-8(fp)

  return active;
  800118:	e0bffe17 	ldw	r2,-8(fp)
   * Consider the case where the high priority interupt is asserted during
   * the interrupt entry sequence for a lower priority interrupt to see why
   * this is the case.
   */

  active = alt_irq_pending ();
  80011c:	e0bffb15 	stw	r2,-20(fp)

  do
  {
    i = 0;
  800120:	e03ffd15 	stw	zero,-12(fp)
    mask = 1;
  800124:	00800044 	movi	r2,1
  800128:	e0bffc15 	stw	r2,-16(fp)
     * called to clear the interrupt condition.
     */

    do
    {
      if (active & mask)
  80012c:	e0fffb17 	ldw	r3,-20(fp)
  800130:	e0bffc17 	ldw	r2,-16(fp)
  800134:	1884703a 	and	r2,r3,r2
  800138:	10001426 	beq	r2,zero,80018c <alt_irq_handler+0x90>
      { 
#ifdef ALT_ENHANCED_INTERRUPT_API_PRESENT
        alt_irq[i].handler(alt_irq[i].context); 
  80013c:	008020b4 	movhi	r2,130
  800140:	10a40d04 	addi	r2,r2,-28620
  800144:	e0fffd17 	ldw	r3,-12(fp)
  800148:	180690fa 	slli	r3,r3,3
  80014c:	10c5883a 	add	r2,r2,r3
  800150:	10c00017 	ldw	r3,0(r2)
  800154:	008020b4 	movhi	r2,130
  800158:	10a40d04 	addi	r2,r2,-28620
  80015c:	e13ffd17 	ldw	r4,-12(fp)
  800160:	200890fa 	slli	r4,r4,3
  800164:	1105883a 	add	r2,r2,r4
  800168:	10800104 	addi	r2,r2,4
  80016c:	10800017 	ldw	r2,0(r2)
  800170:	1009883a 	mov	r4,r2
  800174:	183ee83a 	callr	r3
#else
        alt_irq[i].handler(alt_irq[i].context, i); 
#endif
        break;
  800178:	0001883a 	nop
#ifndef NIOS2_EIC_PRESENT
static ALT_INLINE alt_u32 ALT_ALWAYS_INLINE alt_irq_pending (void)
{
  alt_u32 active;

  NIOS2_READ_IPENDING (active);
  80017c:	0005313a 	rdctl	r2,ipending
  800180:	e0bfff15 	stw	r2,-4(fp)

  return active;
  800184:	e0bfff17 	ldw	r2,-4(fp)
  800188:	00000706 	br	8001a8 <alt_irq_handler+0xac>
      }
      mask <<= 1;
  80018c:	e0bffc17 	ldw	r2,-16(fp)
  800190:	1085883a 	add	r2,r2,r2
  800194:	e0bffc15 	stw	r2,-16(fp)
      i++;
  800198:	e0bffd17 	ldw	r2,-12(fp)
  80019c:	10800044 	addi	r2,r2,1
  8001a0:	e0bffd15 	stw	r2,-12(fp)

    } while (1);
  8001a4:	003fe106 	br	80012c <__alt_mem_onchip_mem+0xff78012c>

    active = alt_irq_pending ();
  8001a8:	e0bffb15 	stw	r2,-20(fp)
    
  } while (active);
  8001ac:	e0bffb17 	ldw	r2,-20(fp)
  8001b0:	103fdb1e 	bne	r2,zero,800120 <__alt_mem_onchip_mem+0xff780120>

  /*
   * Notify the operating system that interrupt processing is complete.
   */ 

  ALT_OS_INT_EXIT();
  8001b4:	0001883a 	nop
}
  8001b8:	0001883a 	nop
  8001bc:	e037883a 	mov	sp,fp
  8001c0:	dfc00117 	ldw	ra,4(sp)
  8001c4:	df000017 	ldw	fp,0(sp)
  8001c8:	dec00204 	addi	sp,sp,8
  8001cc:	f800283a 	ret

008001d0 <alt_instruction_exception_entry>:
 * that handler if it has been registered. Absent a handler, it will
 * break break or hang as discussed below.
 */
int 
alt_instruction_exception_entry (alt_u32 exception_pc)
{
  8001d0:	defffb04 	addi	sp,sp,-20
  8001d4:	dfc00415 	stw	ra,16(sp)
  8001d8:	df000315 	stw	fp,12(sp)
  8001dc:	df000304 	addi	fp,sp,12
  8001e0:	e13fff15 	stw	r4,-4(fp)
 * NIOS2_EXCEPTION_CAUSE_NOT_PRESENT. Your handling routine should
 * check the validity of the cause argument before proceeding.
 */
#ifdef NIOS2_HAS_EXTRA_EXCEPTION_INFO
  /* Get exception cause & "badaddr" */
  NIOS2_READ_EXCEPTION(cause);
  8001e4:	000531fa 	rdctl	r2,exception
  8001e8:	e0bffd15 	stw	r2,-12(fp)
  cause = ( (cause & NIOS2_EXCEPTION_REG_CAUSE_MASK) >>
  8001ec:	e0bffd17 	ldw	r2,-12(fp)
  8001f0:	10801f0c 	andi	r2,r2,124
  8001f4:	1004d0ba 	srli	r2,r2,2
  8001f8:	e0bffd15 	stw	r2,-12(fp)
              NIOS2_EXCEPTION_REG_CAUSE_OFST );

  NIOS2_READ_BADADDR(badaddr);
  8001fc:	0005333a 	rdctl	r2,badaddr
  800200:	e0bffe15 	stw	r2,-8(fp)
#else
  cause = NIOS2_EXCEPTION_CAUSE_NOT_PRESENT;
  badaddr = 0;
#endif /* NIOS2_HAS_EXTRA_EXCEPTION_INFO */

  if(alt_instruction_exception_handler) {
  800204:	d0a7b117 	ldw	r2,-24892(gp)
  800208:	10000726 	beq	r2,zero,800228 <alt_instruction_exception_entry+0x58>
     * Call handler. Its return value indicates whether the exception-causing
     * instruction should be re-issued. The code that called us,
     * alt_eceptions_entry.S, will look at this value and adjust the ea
     * register as necessary
     */
    return alt_instruction_exception_handler(cause, exception_pc, badaddr);
  80020c:	d0a7b117 	ldw	r2,-24892(gp)
  800210:	e0fffd17 	ldw	r3,-12(fp)
  800214:	e1bffe17 	ldw	r6,-8(fp)
  800218:	e17fff17 	ldw	r5,-4(fp)
  80021c:	1809883a 	mov	r4,r3
  800220:	103ee83a 	callr	r2
  800224:	00000206 	br	800230 <alt_instruction_exception_entry+0x60>
   *    (a peripheral which negates its interrupt output before its
   *    interrupt handler has been executed will cause spurious interrupts)
   */
  else {
#ifdef NIOS2_HAS_DEBUG_STUB
    NIOS2_BREAK();
  800228:	003da03a 	break	0
      ;
#endif /* NIOS2_HAS_DEBUG_STUB */
  }

  /* We should not get here. Remove compiler warning. */
  return NIOS2_EXCEPTION_RETURN_REISSUE_INST;
  80022c:	0005883a 	mov	r2,zero
}
  800230:	e037883a 	mov	sp,fp
  800234:	dfc00117 	ldw	ra,4(sp)
  800238:	df000017 	ldw	fp,0(sp)
  80023c:	dec00204 	addi	sp,sp,8
  800240:	f800283a 	ret

Disassembly of section .text:

00800244 <_start>:

    /* Assume the data cache size is always a power of two. */
#if NIOS2_DCACHE_SIZE > 0x8000
    movhi r2, %hi(NIOS2_DCACHE_SIZE)
#else
    movui r2, NIOS2_DCACHE_SIZE
  800244:	00820014 	movui	r2,2048
#endif

0:
    initd 0(r2)
  800248:	10000033 	initd	0(r2)
#ifdef NIOS2_ECC_PRESENT
    addi r2, r2, -4
#else
    addi r2, r2, -NIOS2_DCACHE_LINE_SIZE
  80024c:	10bff804 	addi	r2,r2,-32
#endif
    bgt r2, zero, 0b
  800250:	00bffd16 	blt	zero,r2,800248 <__alt_mem_onchip_mem+0xff780248>

    /*
     * Now that the caches are initialized, set up the stack pointer and global pointer.
     * The values provided by the linker are assumed to be correctly aligned.
     */
    movhi sp, %hi(__alt_stack_pointer)
  800254:	06c04034 	movhi	sp,256
    ori sp, sp, %lo(__alt_stack_pointer)
  800258:	dec00014 	ori	sp,sp,0
    movhi gp, %hi(_gp)
  80025c:	06802074 	movhi	gp,129
    ori gp, gp, %lo(_gp)
  800260:	d6bc3914 	ori	gp,gp,61668
 */
#ifndef ALT_SIM_OPTIMIZE
    /* Log that the BSS is about to be cleared. */
    ALT_LOG_PUTS(alt_log_msg_bss)

    movhi r2, %hi(__bss_start)
  800264:	00802074 	movhi	r2,129
    ori r2, r2, %lo(__bss_start)
  800268:	10a38714 	ori	r2,r2,36380

    movhi r3, %hi(__bss_end)
  80026c:	00c02074 	movhi	r3,129
    ori r3, r3, %lo(__bss_end)
  800270:	18e44d14 	ori	r3,r3,37172

    beq r2, r3, 1f
  800274:	10c00326 	beq	r2,r3,800284 <_start+0x40>

0:
    stw zero, (r2)
  800278:	10000015 	stw	zero,0(r2)
    addi r2, r2, 4
  80027c:	10800104 	addi	r2,r2,4
    bltu r2, r3, 0b
  800280:	10fffd36 	bltu	r2,r3,800278 <__alt_mem_onchip_mem+0xff780278>
     * section aren't defined until alt_load() has been called).
     */
    mov   et, zero
#endif

    call alt_load
  800284:	0810fbc0 	call	810fbc <alt_load>

    /* Log that alt_main is about to be called. */
    ALT_LOG_PUTS(alt_log_msg_alt_main)

    /* Call the C entry point. It should never return. */
    call alt_main
  800288:	08111500 	call	811150 <alt_main>

0080028c <alt_after_alt_main>:

    /* Wait in infinite loop in case alt_main does return. */
alt_after_alt_main:
    br alt_after_alt_main
  80028c:	003fff06 	br	80028c <__alt_mem_onchip_mem+0xff78028c>

00800290 <get_heart_signals>:
 * This method sets a flag to set initiate setting the
 * Vsense or Asense variable if KEY0 and KEY1 are is pressed
 * respectively.
 */
void get_heart_signals(void* context, alt_u32 ID)
{
  800290:	defffc04 	addi	sp,sp,-16
  800294:	df000315 	stw	fp,12(sp)
  800298:	df000304 	addi	fp,sp,12
  80029c:	e13ffe15 	stw	r4,-8(fp)
  8002a0:	e17fff15 	stw	r5,-4(fp)
	// critical section "ticket" variable
	int code;

	// Read buttons value
	int buttonsValue = IORD_ALTERA_AVALON_PIO_DATA(BUTTONS_BASE);
  8002a4:	00804434 	movhi	r2,272
  8002a8:	10842804 	addi	r2,r2,4256
  8002ac:	10800037 	ldwio	r2,0(r2)
  8002b0:	e0bffd15 	stw	r2,-12(fp)

	// ensure mutual exclusion
	//test_and_set(&code);
	//while(code)test_and_set(&code);

	if(buttonsValue == 0b110) // Vsense occurred
  8002b4:	e0bffd17 	ldw	r2,-12(fp)
  8002b8:	10800198 	cmpnei	r2,r2,6
  8002bc:	1000031e 	bne	r2,zero,8002cc <get_heart_signals+0x3c>
	{
		vsense_flag = 1;
  8002c0:	00800044 	movi	r2,1
  8002c4:	d0a74e15 	stw	r2,-25288(gp)
  8002c8:	00000d06 	br	800300 <get_heart_signals+0x70>
	}
	else if(buttonsValue == 0b101) // Asense occured
  8002cc:	e0bffd17 	ldw	r2,-12(fp)
  8002d0:	10800158 	cmpnei	r2,r2,5
  8002d4:	1000031e 	bne	r2,zero,8002e4 <get_heart_signals+0x54>
	{
		asense_flag = 1;
  8002d8:	00800044 	movi	r2,1
  8002dc:	d0a74f15 	stw	r2,-25284(gp)
  8002e0:	00000706 	br	800300 <get_heart_signals+0x70>
	}
	else if(buttonsValue == 0b100) // Asense and Vsense occured
  8002e4:	e0bffd17 	ldw	r2,-12(fp)
  8002e8:	10800118 	cmpnei	r2,r2,4
  8002ec:	1000041e 	bne	r2,zero,800300 <get_heart_signals+0x70>
	{
		vsense_flag = 1;
  8002f0:	00800044 	movi	r2,1
  8002f4:	d0a74e15 	stw	r2,-25288(gp)
		asense_flag = 1;
  8002f8:	00800044 	movi	r2,1
  8002fc:	d0a74f15 	stw	r2,-25284(gp)

	// free the critical section
	//occupied = 0;

	// clear the edge capture register to enable next interrupt
	IOWR_ALTERA_AVALON_PIO_EDGE_CAP(BUTTONS_BASE, 0);
  800300:	0007883a 	mov	r3,zero
  800304:	00804434 	movhi	r2,272
  800308:	10842b04 	addi	r2,r2,4268
  80030c:	10c00035 	stwio	r3,0(r2)
}
  800310:	0001883a 	nop
  800314:	e037883a 	mov	sp,fp
  800318:	df000017 	ldw	fp,0(sp)
  80031c:	dec00104 	addi	sp,sp,4
  800320:	f800283a 	ret

00800324 <get_uart_contents>:


void get_uart_contents(void *context ,alt_u32 interrupt)
{
  800324:	defffb04 	addi	sp,sp,-20
  800328:	dfc00415 	stw	ra,16(sp)
  80032c:	df000315 	stw	fp,12(sp)
  800330:	df000304 	addi	fp,sp,12
  800334:	e13ffe15 	stw	r4,-8(fp)
  800338:	e17fff15 	stw	r5,-4(fp)
	unsigned short int data,status,code;
	// wait till a char is ready to read from uart
	status = IORD_ALTERA_AVALON_UART_STATUS(UART_BASE);
  80033c:	00804434 	movhi	r2,272
  800340:	10841204 	addi	r2,r2,4168
  800344:	10800037 	ldwio	r2,0(r2)
  800348:	e0bffd0d 	sth	r2,-12(fp)
	while (!(status & ALTERA_AVALON_UART_STATUS_RRDY_MSK))
  80034c:	00000406 	br	800360 <get_uart_contents+0x3c>
	status = IORD_ALTERA_AVALON_UART_STATUS(UART_BASE);
  800350:	00804434 	movhi	r2,272
  800354:	10841204 	addi	r2,r2,4168
  800358:	10800037 	ldwio	r2,0(r2)
  80035c:	e0bffd0d 	sth	r2,-12(fp)
void get_uart_contents(void *context ,alt_u32 interrupt)
{
	unsigned short int data,status,code;
	// wait till a char is ready to read from uart
	status = IORD_ALTERA_AVALON_UART_STATUS(UART_BASE);
	while (!(status & ALTERA_AVALON_UART_STATUS_RRDY_MSK))
  800360:	e0bffd0b 	ldhu	r2,-12(fp)
  800364:	1080200c 	andi	r2,r2,128
  800368:	103ff926 	beq	r2,zero,800350 <__alt_mem_onchip_mem+0xff780350>
	status = IORD_ALTERA_AVALON_UART_STATUS(UART_BASE);
	// read the buffer content
	data =IORD_ALTERA_AVALON_UART_RXDATA(UART_BASE);
  80036c:	00804434 	movhi	r2,272
  800370:	10841004 	addi	r2,r2,4160
  800374:	10800037 	ldwio	r2,0(r2)
  800378:	e0bffd8d 	sth	r2,-10(fp)

	// ensure mutual exclusion
	//test_and_set(&code);
	//while(code)test_and_set(&code);
	if(data == _Asense)
  80037c:	e0bffd8b 	ldhu	r2,-10(fp)
  800380:	10801058 	cmpnei	r2,r2,65
  800384:	1000061e 	bne	r2,zero,8003a0 <get_uart_contents+0x7c>
	{
		asense_flag_mode_2 = 1;
  800388:	00800044 	movi	r2,1
  80038c:	d0a75115 	stw	r2,-25276(gp)
		printf("Asense received from heart emulator\n");
  800390:	01002074 	movhi	r4,129
  800394:	21135d04 	addi	r4,r4,19828
  800398:	0804b8c0 	call	804b8c <puts>
	}

	//free the critical section
	//occupied = 0;

}
  80039c:	00000806 	br	8003c0 <get_uart_contents+0x9c>
	if(data == _Asense)
	{
		asense_flag_mode_2 = 1;
		printf("Asense received from heart emulator\n");
	}
	else if(data == _Vsense)
  8003a0:	e0bffd8b 	ldhu	r2,-10(fp)
  8003a4:	10801598 	cmpnei	r2,r2,86
  8003a8:	1000051e 	bne	r2,zero,8003c0 <get_uart_contents+0x9c>
	{
		vsense_flag_mode_2 = 1;
  8003ac:	00800044 	movi	r2,1
  8003b0:	d0a75015 	stw	r2,-25280(gp)
		printf("Vsense received from heart emulator\n");
  8003b4:	01002074 	movhi	r4,129
  8003b8:	21136604 	addi	r4,r4,19864
  8003bc:	0804b8c0 	call	804b8c <puts>
	}

	//free the critical section
	//occupied = 0;

}
  8003c0:	0001883a 	nop
  8003c4:	e037883a 	mov	sp,fp
  8003c8:	dfc00117 	ldw	ra,4(sp)
  8003cc:	df000017 	ldw	fp,0(sp)
  8003d0:	dec00204 	addi	sp,sp,8
  8003d4:	f800283a 	ret

008003d8 <timeout_checker>:
 * 	timer_expired_flag - the address of the timer variable that represent an input on the sccharts
 * 			 will modify the value of the passed outputput to "1" for timer timeout
 * 			 and "0" for timer still counting.
 */
void timeout_checker(int first_timeStamp , int timeout ,char *timer_expired_flag)
{
  8003d8:	defffa04 	addi	sp,sp,-24
  8003dc:	dfc00515 	stw	ra,20(sp)
  8003e0:	df000415 	stw	fp,16(sp)
  8003e4:	df000404 	addi	fp,sp,16
  8003e8:	e13ffd15 	stw	r4,-12(fp)
  8003ec:	e17ffe15 	stw	r5,-8(fp)
  8003f0:	e1bfff15 	stw	r6,-4(fp)
 * alt_nticks() returns the elapsed number of system clock ticks since reset.
 */

static ALT_INLINE alt_u32 ALT_ALWAYS_INLINE alt_nticks (void)
{
  return _alt_nticks;
  8003f4:	d0e7b017 	ldw	r3,-24896(gp)

	//calculates the elapsed time
	int time_diff = alt_nticks() - first_timeStamp;
  8003f8:	e0bffd17 	ldw	r2,-12(fp)
  8003fc:	1885c83a 	sub	r2,r3,r2
  800400:	e0bffc15 	stw	r2,-16(fp)

	if(time_diff >= timeout)
  800404:	e0fffc17 	ldw	r3,-16(fp)
  800408:	e0bffe17 	ldw	r2,-8(fp)
  80040c:	18800716 	blt	r3,r2,80042c <timeout_checker+0x54>
	{
		 printf("timeoutvalue %d \n",time_diff);
  800410:	e17ffc17 	ldw	r5,-16(fp)
  800414:	01002074 	movhi	r4,129
  800418:	21136f04 	addi	r4,r4,19900
  80041c:	0804a900 	call	804a90 <printf>
		(*timer_expired_flag) = 1; // timer expired
  800420:	e0bfff17 	ldw	r2,-4(fp)
  800424:	00c00044 	movi	r3,1
  800428:	10c00005 	stb	r3,0(r2)
	}
}
  80042c:	0001883a 	nop
  800430:	e037883a 	mov	sp,fp
  800434:	dfc00117 	ldw	ra,4(sp)
  800438:	df000017 	ldw	fp,0(sp)
  80043c:	dec00204 	addi	sp,sp,8
  800440:	f800283a 	ret

00800444 <test_and_set>:
/*
 * This method ensures that only one process (main or ISR) has access
 * to variables "vsense_flag" or "asense_flag" at a time
 */
void test_and_set(int* code)
{
  800444:	defffe04 	addi	sp,sp,-8
  800448:	df000115 	stw	fp,4(sp)
  80044c:	df000104 	addi	fp,sp,4
  800450:	e13fff15 	stw	r4,-4(fp)
	(*code) = occupied;
  800454:	d0e75217 	ldw	r3,-25272(gp)
  800458:	e0bfff17 	ldw	r2,-4(fp)
  80045c:	10c00015 	stw	r3,0(r2)
	occupied = 1;
  800460:	00800044 	movi	r2,1
  800464:	d0a75215 	stw	r2,-25272(gp)
}
  800468:	0001883a 	nop
  80046c:	e037883a 	mov	sp,fp
  800470:	df000017 	ldw	fp,0(sp)
  800474:	dec00104 	addi	sp,sp,4
  800478:	f800283a 	ret

0080047c <transmit_string>:

void transmit_string(char* txString){
  80047c:	defffe04 	addi	sp,sp,-8
  800480:	df000115 	stw	fp,4(sp)
  800484:	df000104 	addi	fp,sp,4
  800488:	e13fff15 	stw	r4,-4(fp)
	//Set RTS to true (logic 0 as inverted)
	IOWR(UART_BASE,ALTERA_AVALON_UART_CONTROL_REG ,IORD(UART_BASE,ALTERA_AVALON_UART_CONTROL_REG) & ~(0x0800));
  80048c:	00804434 	movhi	r2,272
  800490:	10841304 	addi	r2,r2,4172
  800494:	10c00037 	ldwio	r3,0(r2)
  800498:	00bdffc4 	movi	r2,-2049
  80049c:	1886703a 	and	r3,r3,r2
  8004a0:	00804434 	movhi	r2,272
  8004a4:	10841304 	addi	r2,r2,4172
  8004a8:	10c00035 	stwio	r3,0(r2)
	//Ensure that CTS is true (logic 0 as inverted)
	while((IORD(UART_BASE,ALTERA_AVALON_UART_STATUS_REG) & 0x0800) != 0){};
  8004ac:	0001883a 	nop
  8004b0:	00804434 	movhi	r2,272
  8004b4:	10841204 	addi	r2,r2,4168
  8004b8:	10800037 	ldwio	r2,0(r2)
  8004bc:	1082000c 	andi	r2,r2,2048
  8004c0:	103ffb1e 	bne	r2,zero,8004b0 <__alt_mem_onchip_mem+0xff7804b0>
	//Ensure that previous character sent
	while((IORD(UART_BASE,ALTERA_AVALON_UART_STATUS_REG) & 0x0040) == 0){};
  8004c4:	0001883a 	nop
  8004c8:	00804434 	movhi	r2,272
  8004cc:	10841204 	addi	r2,r2,4168
  8004d0:	10800037 	ldwio	r2,0(r2)
  8004d4:	1080100c 	andi	r2,r2,64
  8004d8:	103ffb26 	beq	r2,zero,8004c8 <__alt_mem_onchip_mem+0xff7804c8>
	//Write next character into txData register
	IOWR(UART_BASE,ALTERA_AVALON_UART_TXDATA_REG ,txString[0]);
  8004dc:	e0bfff17 	ldw	r2,-4(fp)
  8004e0:	10800003 	ldbu	r2,0(r2)
  8004e4:	10c03fcc 	andi	r3,r2,255
  8004e8:	18c0201c 	xori	r3,r3,128
  8004ec:	18ffe004 	addi	r3,r3,-128
  8004f0:	00804434 	movhi	r2,272
  8004f4:	10841104 	addi	r2,r2,4164
  8004f8:	10c00035 	stwio	r3,0(r2)

//Finished sending string so set RTS to false (logic 1 as inverted)
IOWR(UART_BASE,ALTERA_AVALON_UART_CONTROL_REG ,IORD(UART_BASE,ALTERA_AVALON_UART_CONTROL_REG) | 0x0800);
  8004fc:	00804434 	movhi	r2,272
  800500:	10841304 	addi	r2,r2,4172
  800504:	10800037 	ldwio	r2,0(r2)
  800508:	10c20014 	ori	r3,r2,2048
  80050c:	00804434 	movhi	r2,272
  800510:	10841304 	addi	r2,r2,4172
  800514:	10c00035 	stwio	r3,0(r2)
}
  800518:	0001883a 	nop
  80051c:	e037883a 	mov	sp,fp
  800520:	df000017 	ldw	fp,0(sp)
  800524:	dec00104 	addi	sp,sp,4
  800528:	f800283a 	ret

0080052c <main>:


int main()
{
  80052c:	defff604 	addi	sp,sp,-40
  800530:	dfc00915 	stw	ra,36(sp)
  800534:	df000815 	stw	fp,32(sp)
  800538:	df000804 	addi	fp,sp,32
	// Initialize the FSM
	reset();
  80053c:	0800ad00 	call	800ad0 <reset>

	// Store the timers "timer start" flags
	timer_start_flags[0] = &start_AVI;
  800540:	008020b4 	movhi	r2,130
  800544:	10a40704 	addi	r2,r2,-28644
  800548:	d0e77104 	addi	r3,gp,-25148
  80054c:	10c00015 	stw	r3,0(r2)
	timer_start_flags[1] = &start_PVARP;
  800550:	008020b4 	movhi	r2,130
  800554:	10a40704 	addi	r2,r2,-28644
  800558:	d0e78344 	addi	r3,gp,-25075
  80055c:	10c00115 	stw	r3,4(r2)
	timer_start_flags[2] = &start_VRP;
  800560:	008020b4 	movhi	r2,130
  800564:	10a40704 	addi	r2,r2,-28644
  800568:	d0e76a84 	addi	r3,gp,-25174
  80056c:	10c00215 	stw	r3,8(r2)
	timer_start_flags[3] = &start_AEI;
  800570:	008020b4 	movhi	r2,130
  800574:	10a40704 	addi	r2,r2,-28644
  800578:	d0e78884 	addi	r3,gp,-25054
  80057c:	10c00315 	stw	r3,12(r2)
	timer_start_flags[4] = &start_LRI;
  800580:	008020b4 	movhi	r2,130
  800584:	10a40704 	addi	r2,r2,-28644
  800588:	d0e78a44 	addi	r3,gp,-25047
  80058c:	10c00415 	stw	r3,16(r2)
	timer_start_flags[5] = &start_URI;
  800590:	008020b4 	movhi	r2,130
  800594:	10a40704 	addi	r2,r2,-28644
  800598:	d0e78e04 	addi	r3,gp,-25032
  80059c:	10c00515 	stw	r3,20(r2)

	// Store the timer state (counting = 1 idle = 0)
	timer_state_flags[0] = &AVI_counting;
  8005a0:	008020b4 	movhi	r2,130
  8005a4:	10a40104 	addi	r2,r2,-28668
  8005a8:	d0e7a104 	addi	r3,gp,-24956
  8005ac:	10c00015 	stw	r3,0(r2)
	timer_state_flags[1] = &PVARP_counting;
  8005b0:	008020b4 	movhi	r2,130
  8005b4:	10a40104 	addi	r2,r2,-28668
  8005b8:	d0e76c84 	addi	r3,gp,-25166
  8005bc:	10c00115 	stw	r3,4(r2)
	timer_state_flags[2] = &VRP_counting;
  8005c0:	008020b4 	movhi	r2,130
  8005c4:	10a40104 	addi	r2,r2,-28668
  8005c8:	d0e78104 	addi	r3,gp,-25084
  8005cc:	10c00215 	stw	r3,8(r2)
	timer_state_flags[3] = &AEI_counting;
  8005d0:	008020b4 	movhi	r2,130
  8005d4:	10a40104 	addi	r2,r2,-28668
  8005d8:	d0e77c04 	addi	r3,gp,-25104
  8005dc:	10c00315 	stw	r3,12(r2)
	timer_state_flags[4] = &LRI_counting;
  8005e0:	008020b4 	movhi	r2,130
  8005e4:	10a40104 	addi	r2,r2,-28668
  8005e8:	d0e77004 	addi	r3,gp,-25152
  8005ec:	10c00415 	stw	r3,16(r2)
	timer_state_flags[5] = &URI_counting;
  8005f0:	008020b4 	movhi	r2,130
  8005f4:	10a40104 	addi	r2,r2,-28668
  8005f8:	d0e76f44 	addi	r3,gp,-25155
  8005fc:	10c00515 	stw	r3,20(r2)

	// Store the SCCHARTS OUTPUT variables
	timer_expired_flags[0] = &AVI_ex;
  800600:	008020b4 	movhi	r2,130
  800604:	10a3fb04 	addi	r2,r2,-28692
  800608:	d0e77cc4 	addi	r3,gp,-25101
  80060c:	10c00015 	stw	r3,0(r2)
	timer_expired_flags[1] = &PVARP_ex;
  800610:	008020b4 	movhi	r2,130
  800614:	10a3fb04 	addi	r2,r2,-28692
  800618:	d0e79104 	addi	r3,gp,-25020
  80061c:	10c00115 	stw	r3,4(r2)
	timer_expired_flags[2] = &VRP_ex;
  800620:	008020b4 	movhi	r2,130
  800624:	10a3fb04 	addi	r2,r2,-28692
  800628:	d0e77d84 	addi	r3,gp,-25098
  80062c:	10c00215 	stw	r3,8(r2)
	timer_expired_flags[3] = &AEI_ex;
  800630:	008020b4 	movhi	r2,130
  800634:	10a3fb04 	addi	r2,r2,-28692
  800638:	d0e75ac4 	addi	r3,gp,-25237
  80063c:	10c00315 	stw	r3,12(r2)
	timer_expired_flags[4] = &LRI_ex;
  800640:	008020b4 	movhi	r2,130
  800644:	10a3fb04 	addi	r2,r2,-28692
  800648:	d0e776c4 	addi	r3,gp,-25125
  80064c:	10c00415 	stw	r3,16(r2)
	timer_expired_flags[5] = &URI_ex;
  800650:	008020b4 	movhi	r2,130
  800654:	10a3fb04 	addi	r2,r2,-28692
  800658:	d0e78044 	addi	r3,gp,-25087
  80065c:	10c00515 	stw	r3,20(r2)

	// stores the heart signals sent from the heart emulator
	char heart_signal[1];
	//  stores the switch values on the switch on DE-115 board
	int swicthValue = 0;
  800660:	e03ff815 	stw	zero,-32(fp)
	// stores the previous value of variable "swicthValue"
	int prevSwitchValue = -1;
  800664:	00bfffc4 	movi	r2,-1
  800668:	e0bff915 	stw	r2,-28(fp)
	// critical section "ticket" variable
	int code;
	// led delay counter for vpace
	int led_counter_vp = 0;
  80066c:	e03ffa15 	stw	zero,-24(fp)
	// led delay counter for apace
	int led_counter_ap = 0;
  800670:	e03ffb15 	stw	zero,-20(fp)

	//Open uart with read and write
	uart = fopen(UART_NAME , "w+");
  800674:	01402074 	movhi	r5,129
  800678:	29537404 	addi	r5,r5,19920
  80067c:	01002074 	movhi	r4,129
  800680:	21137504 	addi	r4,r4,19924
  800684:	080391c0 	call	80391c <fopen>
  800688:	d0a75415 	stw	r2,-25264(gp)
	//uart = open(UART_NAME,O_NONBLOCK | O_RDWR);
	if(uart == NULL)
  80068c:	d0a75417 	ldw	r2,-25264(gp)
  800690:	1000031e 	bne	r2,zero,8006a0 <main+0x174>
	{
		printf("error ---------------------->could not start uart\n");
  800694:	01002074 	movhi	r4,129
  800698:	21137804 	addi	r4,r4,19936
  80069c:	0804b8c0 	call	804b8c <puts>
	}

	//Open lcd module on the DE-115 board
	lcd = fopen(LCD_NAME, "w");
  8006a0:	01402074 	movhi	r5,129
  8006a4:	29538504 	addi	r5,r5,19988
  8006a8:	01002074 	movhi	r4,129
  8006ac:	21138604 	addi	r4,r4,19992
  8006b0:	080391c0 	call	80391c <fopen>
  8006b4:	d0a75315 	stw	r2,-25268(gp)
	if(lcd == NULL)
  8006b8:	d0a75317 	ldw	r2,-25268(gp)
  8006bc:	1000031e 	bne	r2,zero,8006cc <main+0x1a0>
	{
		printf("error ---------------------->could not start lcd\n");
  8006c0:	01002074 	movhi	r4,129
  8006c4:	21138904 	addi	r4,r4,20004
  8006c8:	0804b8c0 	call	804b8c <puts>
	}

	// initialize button isr - clear the buttons edge capture register
	 IOWR_ALTERA_AVALON_PIO_EDGE_CAP(BUTTONS_BASE, 0);
  8006cc:	0007883a 	mov	r3,zero
  8006d0:	00804434 	movhi	r2,272
  8006d4:	10842b04 	addi	r2,r2,4268
  8006d8:	10c00035 	stwio	r3,0(r2)
	// enable interrupt on button press (KEY0 or KEY1 only)
	 IOWR_ALTERA_AVALON_PIO_IRQ_MASK(BUTTONS_BASE, 0b011);
  8006dc:	00c000c4 	movi	r3,3
  8006e0:	00804434 	movhi	r2,272
  8006e4:	10842a04 	addi	r2,r2,4264
  8006e8:	10c00035 	stwio	r3,0(r2)
	// initialize button isr - register button ISR
	 alt_irq_register (BUTTONS_IRQ, NULL , get_heart_signals);
  8006ec:	01802034 	movhi	r6,128
  8006f0:	3180a404 	addi	r6,r6,656
  8006f4:	000b883a 	mov	r5,zero
  8006f8:	01000104 	movi	r4,4
  8006fc:	0810cf40 	call	810cf4 <alt_irq_register>
	 // enable ISR routine when uart has a char in buffer
	 IOWR(UART_BASE,ALTERA_AVALON_UART_CONTROL_REG,ALTERA_AVALON_UART_CONTROL_RRDY_MSK);
  800700:	00c02004 	movi	r3,128
  800704:	00804434 	movhi	r2,272
  800708:	10841304 	addi	r2,r2,4172
  80070c:	10c00035 	stwio	r3,0(r2)
	 // register uart ISR routine
	  alt_irq_register(UART_IRQ, NULL, get_uart_contents);
  800710:	01802034 	movhi	r6,128
  800714:	3180c904 	addi	r6,r6,804
  800718:	000b883a 	mov	r5,zero
  80071c:	0009883a 	mov	r4,zero
  800720:	0810cf40 	call	810cf4 <alt_irq_register>

  while(1)
  {


	  if(swicthValue) // Read Vsense and Asense inputs from the heart emulator ( SW0 = 1)
  800724:	e0bff817 	ldw	r2,-32(fp)
  800728:	10001926 	beq	r2,zero,800790 <main+0x264>
	  {
		  // Read heart inputs from the heart emulator
		  //fscanf(uart,"%c", &heart_signal);

		  // ensure mutual exclusion
		  test_and_set(&code);
  80072c:	e0bffe04 	addi	r2,fp,-8
  800730:	1009883a 	mov	r4,r2
  800734:	08004440 	call	800444 <test_and_set>
		  while(code) test_and_set(&code);
  800738:	00000306 	br	800748 <main+0x21c>
  80073c:	e0bffe04 	addi	r2,fp,-8
  800740:	1009883a 	mov	r4,r2
  800744:	08004440 	call	800444 <test_and_set>
  800748:	e0bffe17 	ldw	r2,-8(fp)
  80074c:	103ffb1e 	bne	r2,zero,80073c <__alt_mem_onchip_mem+0xff78073c>
		  if(asense_flag_mode_2)
  800750:	d0a75117 	ldw	r2,-25276(gp)
  800754:	10000426 	beq	r2,zero,800768 <main+0x23c>
		  {
			  Asense = 1; // Asense occured
  800758:	00800044 	movi	r2,1
  80075c:	d0a792c5 	stb	r2,-25013(gp)
			  asense_flag_mode_2 = 0;
  800760:	d0275115 	stw	zero,-25276(gp)
  800764:	00000106 	br	80076c <main+0x240>
		  }
		  else
		  {
			  Asense = 0; // no Asense occured
  800768:	d02792c5 	stb	zero,-25013(gp)
		  }

		  if(vsense_flag_mode_2)
  80076c:	d0a75017 	ldw	r2,-25280(gp)
  800770:	10000426 	beq	r2,zero,800784 <main+0x258>
		  {
			  Vsense = 1; // Vsense occured
  800774:	00800044 	movi	r2,1
  800778:	d0a77905 	stb	r2,-25116(gp)
			  vsense_flag_mode_2 = 0;
  80077c:	d0275015 	stw	zero,-25280(gp)
  800780:	00000106 	br	800788 <main+0x25c>

		  }
		  else
		  {
			  Vsense = 0; // no Vsense occured
  800784:	d0277905 	stb	zero,-25116(gp)
		  }

		  occupied = 0; // free critical section
  800788:	d0275215 	stw	zero,-25272(gp)
  80078c:	00000e06 	br	8007c8 <main+0x29c>
		  // ensure mutual exclusion
		  //test_and_set(&code);
		  //while(code) test_and_set(&code);

		  //Get Vsense or Asense inputs
		  if(vsense_flag)
  800790:	d0a74e17 	ldw	r2,-25288(gp)
  800794:	10000426 	beq	r2,zero,8007a8 <main+0x27c>
		  {
			  Vsense = 1; // Vsense occured
  800798:	00800044 	movi	r2,1
  80079c:	d0a77905 	stb	r2,-25116(gp)
			  vsense_flag = 0;
  8007a0:	d0274e15 	stw	zero,-25288(gp)
  8007a4:	00000106 	br	8007ac <main+0x280>
		  }
		  else
		  {
			  Vsense = 0; // no Vsense occured
  8007a8:	d0277905 	stb	zero,-25116(gp)
		  }

		  if(asense_flag)
  8007ac:	d0a74f17 	ldw	r2,-25284(gp)
  8007b0:	10000426 	beq	r2,zero,8007c4 <main+0x298>
		  {
			  Asense = 1; // Asense occured
  8007b4:	00800044 	movi	r2,1
  8007b8:	d0a792c5 	stb	r2,-25013(gp)
			  asense_flag = 0;
  8007bc:	d0274f15 	stw	zero,-25284(gp)
  8007c0:	00000106 	br	8007c8 <main+0x29c>
		  }
		  else
		  {
			  Asense = 0; // no Asense occured
  8007c4:	d02792c5 	stb	zero,-25013(gp)
		  //occupied = 0; // free critical section
	  }


	  // Get inputs (TIMER_ex inputs) e.g. "AVI_ex = 1" timer AVI expired
	  for(int i = 0; i < 6 ; i++)
  8007c8:	e03ffc15 	stw	zero,-16(fp)
  8007cc:	00004406 	br	8008e0 <main+0x3b4>
	  {
		  // check if a timer is started
		  if((*timer_start_flags[i]))
  8007d0:	008020b4 	movhi	r2,130
  8007d4:	10a40704 	addi	r2,r2,-28644
  8007d8:	e0fffc17 	ldw	r3,-16(fp)
  8007dc:	18c7883a 	add	r3,r3,r3
  8007e0:	18c7883a 	add	r3,r3,r3
  8007e4:	10c5883a 	add	r2,r2,r3
  8007e8:	10800017 	ldw	r2,0(r2)
  8007ec:	10800003 	ldbu	r2,0(r2)
  8007f0:	10803fcc 	andi	r2,r2,255
  8007f4:	1080201c 	xori	r2,r2,128
  8007f8:	10bfe004 	addi	r2,r2,-128
  8007fc:	10000926 	beq	r2,zero,800824 <main+0x2f8>
  800800:	d0a7b017 	ldw	r2,-24896(gp)
		  {
			  // get the time stamp when start timer flag is set
			  timer_fist_timeStamp_Value[i] = alt_nticks();
  800804:	1009883a 	mov	r4,r2
  800808:	008020b4 	movhi	r2,130
  80080c:	10a3eb04 	addi	r2,r2,-28756
  800810:	e0fffc17 	ldw	r3,-16(fp)
  800814:	18c7883a 	add	r3,r3,r3
  800818:	18c7883a 	add	r3,r3,r3
  80081c:	10c5883a 	add	r2,r2,r3
  800820:	11000015 	stw	r4,0(r2)
		  }

		  // check if a timer is still counting
		  if((*timer_state_flags[i]))
  800824:	008020b4 	movhi	r2,130
  800828:	10a40104 	addi	r2,r2,-28668
  80082c:	e0fffc17 	ldw	r3,-16(fp)
  800830:	18c7883a 	add	r3,r3,r3
  800834:	18c7883a 	add	r3,r3,r3
  800838:	10c5883a 	add	r2,r2,r3
  80083c:	10800017 	ldw	r2,0(r2)
  800840:	10800003 	ldbu	r2,0(r2)
  800844:	10803fcc 	andi	r2,r2,255
  800848:	1080201c 	xori	r2,r2,128
  80084c:	10bfe004 	addi	r2,r2,-128
  800850:	10001826 	beq	r2,zero,8008b4 <main+0x388>
		  {
			  /* check if a timer has timed out
			   * and outputs a timer expire flag to
			   * intput into sccharts
			   */
			  timeout_checker(timer_fist_timeStamp_Value[i],
  800854:	008020b4 	movhi	r2,130
  800858:	10a3eb04 	addi	r2,r2,-28756
  80085c:	e0fffc17 	ldw	r3,-16(fp)
  800860:	18c7883a 	add	r3,r3,r3
  800864:	18c7883a 	add	r3,r3,r3
  800868:	10c5883a 	add	r2,r2,r3
  80086c:	11000017 	ldw	r4,0(r2)
  800870:	00802074 	movhi	r2,129
  800874:	10950f04 	addi	r2,r2,21564
  800878:	e0fffc17 	ldw	r3,-16(fp)
  80087c:	18c7883a 	add	r3,r3,r3
  800880:	18c7883a 	add	r3,r3,r3
  800884:	10c5883a 	add	r2,r2,r3
  800888:	11400017 	ldw	r5,0(r2)
  80088c:	008020b4 	movhi	r2,130
  800890:	10a3fb04 	addi	r2,r2,-28692
  800894:	e0fffc17 	ldw	r3,-16(fp)
  800898:	18c7883a 	add	r3,r3,r3
  80089c:	18c7883a 	add	r3,r3,r3
  8008a0:	10c5883a 	add	r2,r2,r3
  8008a4:	10800017 	ldw	r2,0(r2)
  8008a8:	100d883a 	mov	r6,r2
  8008ac:	08003d80 	call	8003d8 <timeout_checker>
  8008b0:	00000806 	br	8008d4 <main+0x3a8>
			                  timer_timeout_values[i],
			                  timer_expired_flags[i]);
		  }
		  else
		  {
			  *timer_expired_flags[i] = 0; // timer is idle or counting
  8008b4:	008020b4 	movhi	r2,130
  8008b8:	10a3fb04 	addi	r2,r2,-28692
  8008bc:	e0fffc17 	ldw	r3,-16(fp)
  8008c0:	18c7883a 	add	r3,r3,r3
  8008c4:	18c7883a 	add	r3,r3,r3
  8008c8:	10c5883a 	add	r2,r2,r3
  8008cc:	10800017 	ldw	r2,0(r2)
  8008d0:	10000005 	stb	zero,0(r2)
		  //occupied = 0; // free critical section
	  }


	  // Get inputs (TIMER_ex inputs) e.g. "AVI_ex = 1" timer AVI expired
	  for(int i = 0; i < 6 ; i++)
  8008d4:	e0bffc17 	ldw	r2,-16(fp)
  8008d8:	10800044 	addi	r2,r2,1
  8008dc:	e0bffc15 	stw	r2,-16(fp)
  8008e0:	e0bffc17 	ldw	r2,-16(fp)
  8008e4:	10800190 	cmplti	r2,r2,6
  8008e8:	103fb91e 	bne	r2,zero,8007d0 <__alt_mem_onchip_mem+0xff7807d0>

	   }


	  // run one FSM tick
	  tick();
  8008ec:	0800b800 	call	800b80 <tick>


	  // emit FSM outputs
	  if(Apace)
  8008f0:	d0a77c83 	ldbu	r2,-25102(gp)
  8008f4:	10803fcc 	andi	r2,r2,255
  8008f8:	1080201c 	xori	r2,r2,128
  8008fc:	10bfe004 	addi	r2,r2,-128
  800900:	10001526 	beq	r2,zero,800958 <main+0x42c>
	  {

		  // set all green LED (high green led means atrium is paced)
		  IOWR_ALTERA_AVALON_PIO_DATA(LEDS_GREEN_BASE, IORD_ALTERA_AVALON_PIO_DATA(LEDS_GREEN_BASE)| 192);
  800904:	00804434 	movhi	r2,272
  800908:	10841c04 	addi	r2,r2,4208
  80090c:	10800037 	ldwio	r2,0(r2)
  800910:	10c03014 	ori	r3,r2,192
  800914:	00804434 	movhi	r2,272
  800918:	10841c04 	addi	r2,r2,4208
  80091c:	10c00035 	stwio	r3,0(r2)
		  printf("Apace\n");
  800920:	01002074 	movhi	r4,129
  800924:	21139604 	addi	r4,r4,20056
  800928:	0804b8c0 	call	804b8c <puts>


		  if(swicthValue) // if mode is mode 2
  80092c:	e0bff817 	ldw	r2,-32(fp)
  800930:	10001426 	beq	r2,zero,800984 <main+0x458>
		  {
			  char AP[1] = "A";
  800934:	00801044 	movi	r2,65
  800938:	e0bfff05 	stb	r2,-4(fp)
			  transmit_string(&AP); // make a Vpace on the heart emulator
  80093c:	e0bfff04 	addi	r2,fp,-4
  800940:	1009883a 	mov	r4,r2
  800944:	080047c0 	call	80047c <transmit_string>
		 	 printf("---> send A\n");
  800948:	01002074 	movhi	r4,129
  80094c:	21139804 	addi	r4,r4,20064
  800950:	0804b8c0 	call	804b8c <puts>
  800954:	00000b06 	br	800984 <main+0x458>
		  }
	  }
	  else
	  {
		  if(led_counter_ap == 50)
  800958:	e0bffb17 	ldw	r2,-20(fp)
  80095c:	10800c98 	cmpnei	r2,r2,50
  800960:	1000051e 	bne	r2,zero,800978 <main+0x44c>
		  {
			  // clear all red LED (heart is not artificially paced)
			  IOWR_ALTERA_AVALON_PIO_DATA(LEDS_RED_BASE, 0);
  800964:	0007883a 	mov	r3,zero
  800968:	00804434 	movhi	r2,272
  80096c:	10842004 	addi	r2,r2,4224
  800970:	10c00035 	stwio	r3,0(r2)
			  led_counter_vp = 0;
  800974:	e03ffa15 	stw	zero,-24(fp)
		  }

		  led_counter_ap++;
  800978:	e0bffb17 	ldw	r2,-20(fp)
  80097c:	10800044 	addi	r2,r2,1
  800980:	e0bffb15 	stw	r2,-20(fp)
	  }

	  if(Vpace)
  800984:	d0a76383 	ldbu	r2,-25202(gp)
  800988:	10803fcc 	andi	r2,r2,255
  80098c:	1080201c 	xori	r2,r2,128
  800990:	10bfe004 	addi	r2,r2,-128
  800994:	10001526 	beq	r2,zero,8009ec <main+0x4c0>
	  {
		  // set all red LED (high red led means ventricle is paced)
		  IOWR_ALTERA_AVALON_PIO_DATA(LEDS_GREEN_BASE, IORD_ALTERA_AVALON_PIO_DATA(LEDS_GREEN_BASE)| 3);
  800998:	00804434 	movhi	r2,272
  80099c:	10841c04 	addi	r2,r2,4208
  8009a0:	10800037 	ldwio	r2,0(r2)
  8009a4:	10c000d4 	ori	r3,r2,3
  8009a8:	00804434 	movhi	r2,272
  8009ac:	10841c04 	addi	r2,r2,4208
  8009b0:	10c00035 	stwio	r3,0(r2)
		  printf("Vpace\n");
  8009b4:	01002074 	movhi	r4,129
  8009b8:	21139b04 	addi	r4,r4,20076
  8009bc:	0804b8c0 	call	804b8c <puts>

		  if(swicthValue) // if mode is mode 2
  8009c0:	e0bff817 	ldw	r2,-32(fp)
  8009c4:	10001426 	beq	r2,zero,800a18 <main+0x4ec>
		  {
			  char VP[1] = "V";
  8009c8:	00801584 	movi	r2,86
  8009cc:	e0bfff45 	stb	r2,-3(fp)
			  transmit_string(&VP); // make a Vpace on the heart emulator // make a Vpace on the heart emulator
  8009d0:	e0bfff44 	addi	r2,fp,-3
  8009d4:	1009883a 	mov	r4,r2
  8009d8:	080047c0 	call	80047c <transmit_string>
			  printf("---> send V\n");
  8009dc:	01002074 	movhi	r4,129
  8009e0:	21139d04 	addi	r4,r4,20084
  8009e4:	0804b8c0 	call	804b8c <puts>
  8009e8:	00000b06 	br	800a18 <main+0x4ec>
		  }
	  }
	  else
	  {
		  if(led_counter_vp == 50)
  8009ec:	e0bffa17 	ldw	r2,-24(fp)
  8009f0:	10800c98 	cmpnei	r2,r2,50
  8009f4:	1000051e 	bne	r2,zero,800a0c <main+0x4e0>
		  {
			  // clear all green LED (heart is not artificially paced)
			  IOWR_ALTERA_AVALON_PIO_DATA(LEDS_GREEN_BASE, 0);
  8009f8:	0007883a 	mov	r3,zero
  8009fc:	00804434 	movhi	r2,272
  800a00:	10841c04 	addi	r2,r2,4208
  800a04:	10c00035 	stwio	r3,0(r2)
			  led_counter_vp = 0;
  800a08:	e03ffa15 	stw	zero,-24(fp)
		  }

		  led_counter_vp++;
  800a0c:	e0bffa17 	ldw	r2,-24(fp)
  800a10:	10800044 	addi	r2,r2,1
  800a14:	e0bffa15 	stw	r2,-24(fp)
	  }

	  // get current value of SW0 from DE-115 board
	  swicthValue = IORD_ALTERA_AVALON_PIO_DATA(SWITCHES_BASE)&1;
  800a18:	00804434 	movhi	r2,272
  800a1c:	10842404 	addi	r2,r2,4240
  800a20:	10800037 	ldwio	r2,0(r2)
  800a24:	1080004c 	andi	r2,r2,1
  800a28:	e0bff815 	stw	r2,-32(fp)
	  if(prevSwitchValue != swicthValue)
  800a2c:	e0fff917 	ldw	r3,-28(fp)
  800a30:	e0bff817 	ldw	r2,-32(fp)
  800a34:	18bf3b26 	beq	r3,r2,800724 <__alt_mem_onchip_mem+0xff780724>
	  {
		  if(swicthValue)
  800a38:	e0bff817 	ldw	r2,-32(fp)
  800a3c:	10000f26 	beq	r2,zero,800a7c <main+0x550>
		  {
			  fprintf(lcd,"Mode 2 \n");
  800a40:	d0a75317 	ldw	r2,-25268(gp)
  800a44:	100f883a 	mov	r7,r2
  800a48:	01800204 	movi	r6,8
  800a4c:	01400044 	movi	r5,1
  800a50:	01002074 	movhi	r4,129
  800a54:	2113a004 	addi	r4,r4,20096
  800a58:	0803edc0 	call	803edc <fwrite>
			  fprintf(lcd,"Uart\n");
  800a5c:	d0a75317 	ldw	r2,-25268(gp)
  800a60:	100f883a 	mov	r7,r2
  800a64:	01800144 	movi	r6,5
  800a68:	01400044 	movi	r5,1
  800a6c:	01002074 	movhi	r4,129
  800a70:	2113a304 	addi	r4,r4,20108
  800a74:	0803edc0 	call	803edc <fwrite>
  800a78:	00000e06 	br	800ab4 <main+0x588>
		  }
		  else
		  {
			  fprintf(lcd,"Mode 1 \n");
  800a7c:	d0a75317 	ldw	r2,-25268(gp)
  800a80:	100f883a 	mov	r7,r2
  800a84:	01800204 	movi	r6,8
  800a88:	01400044 	movi	r5,1
  800a8c:	01002074 	movhi	r4,129
  800a90:	2113a504 	addi	r4,r4,20116
  800a94:	0803edc0 	call	803edc <fwrite>
			  fprintf(lcd,"Buttons\n");
  800a98:	d0a75317 	ldw	r2,-25268(gp)
  800a9c:	100f883a 	mov	r7,r2
  800aa0:	01800204 	movi	r6,8
  800aa4:	01400044 	movi	r5,1
  800aa8:	01002074 	movhi	r4,129
  800aac:	2113a804 	addi	r4,r4,20128
  800ab0:	0803edc0 	call	803edc <fwrite>
		  }

		  prevSwitchValue = swicthValue;
  800ab4:	e0bff817 	ldw	r2,-32(fp)
  800ab8:	e0bff915 	stw	r2,-28(fp)
		  asense_flag = 0; // reset Vsense occured flag
  800abc:	d0274f15 	stw	zero,-25284(gp)
		  vsense_flag = 0; // reset Asense occured flag
  800ac0:	d0274e15 	stw	zero,-25288(gp)
		  asense_flag_mode_2 = 0; // reset Asense occured flag
  800ac4:	d0275115 	stw	zero,-25276(gp)
		  vsense_flag_mode_2 = 0; // reset Vsense occured flag
  800ac8:	d0275015 	stw	zero,-25280(gp)
	  }

  }
  800acc:	003f1506 	br	800724 <__alt_mem_onchip_mem+0xff780724>

00800ad0 <reset>:
char g148_e1_fix_fix;
char g148_e1_fix;
char g148_e1;
char g152_e2;
int _PRE_GO;
void reset(){
  800ad0:	deffff04 	addi	sp,sp,-4
  800ad4:	df000015 	stw	fp,0(sp)
  800ad8:	d839883a 	mov	fp,sp
   _GO = 1;
  800adc:	00800044 	movi	r2,1
  800ae0:	d0a78305 	stb	r2,-25076(gp)
   _PRE_GO = 0;
  800ae4:	d0275e15 	stw	zero,-25224(gp)
   PRE_g3 = 0;
  800ae8:	d0275f45 	stb	zero,-25219(gp)
   PRE_g5 = 0;
  800aec:	d0279c85 	stb	zero,-24974(gp)
   PRE_g8 = 0;
  800af0:	d0276ac5 	stb	zero,-25173(gp)
   PRE_g12 = 0;
  800af4:	d0277345 	stb	zero,-25139(gp)
   PRE_g22 = 0;
  800af8:	d02780c5 	stb	zero,-25085(gp)
   PRE_g25 = 0;
  800afc:	d0277745 	stb	zero,-25123(gp)
   PRE_g27 = 0;
  800b00:	d0275b85 	stb	zero,-25234(gp)
   PRE_g35 = 0;
  800b04:	d0276d45 	stb	zero,-25163(gp)
   PRE_g38 = 0;
  800b08:	d0275785 	stb	zero,-25250(gp)
   PRE_g40 = 0;
  800b0c:	d0276a45 	stb	zero,-25175(gp)
   PRE_g52 = 0;
  800b10:	d0277e85 	stb	zero,-25094(gp)
   PRE_g55 = 0;
  800b14:	d0277305 	stb	zero,-25140(gp)
   PRE_g62 = 0;
  800b18:	d0278705 	stb	zero,-25060(gp)
   PRE_g65 = 0;
  800b1c:	d0276305 	stb	zero,-25204(gp)
   PRE_g67 = 0;
  800b20:	d0278085 	stb	zero,-25086(gp)
   PRE_g78 = 0;
  800b24:	d0276d05 	stb	zero,-25164(gp)
   PRE_g81 = 0;
  800b28:	d0276b45 	stb	zero,-25171(gp)
   PRE_g84 = 0;
  800b2c:	d0277bc5 	stb	zero,-25105(gp)
   PRE_g89 = 0;
  800b30:	d0278dc5 	stb	zero,-25033(gp)
   PRE_g93 = 0;
  800b34:	d02796c5 	stb	zero,-24997(gp)
   PRE_g104 = 0;
  800b38:	d0276bc5 	stb	zero,-25169(gp)
   PRE_g107 = 0;
  800b3c:	d02784c5 	stb	zero,-25069(gp)
   PRE_g112 = 0;
  800b40:	d02755c5 	stb	zero,-25257(gp)
   PRE_g114 = 0;
  800b44:	d0275c85 	stb	zero,-25230(gp)
   PRE_g119 = 0;
  800b48:	d0277fc5 	stb	zero,-25089(gp)
   PRE_g122 = 0;
  800b4c:	d02757c5 	stb	zero,-25249(gp)
   PRE_g127 = 0;
  800b50:	d0279bc5 	stb	zero,-24977(gp)
   PRE_g130 = 0;
  800b54:	d0278c45 	stb	zero,-25039(gp)
   PRE_g134 = 0;
  800b58:	d0275845 	stb	zero,-25247(gp)
   PRE_g137 = 0;
  800b5c:	d02788c5 	stb	zero,-25053(gp)
   PRE_g142 = 0;
  800b60:	d0275f05 	stb	zero,-25220(gp)
   PRE_g144 = 0;
  800b64:	d0276f85 	stb	zero,-25154(gp)
   PRE_g150 = 0;
  800b68:	d02791c5 	stb	zero,-25017(gp)
   return;
  800b6c:	0001883a 	nop
}
  800b70:	e037883a 	mov	sp,fp
  800b74:	df000017 	ldw	fp,0(sp)
  800b78:	dec00104 	addi	sp,sp,4
  800b7c:	f800283a 	ret

00800b80 <tick>:
void tick(){
  800b80:	deffff04 	addi	sp,sp,-4
  800b84:	df000015 	stw	fp,0(sp)
  800b88:	d839883a 	mov	fp,sp
   if(_PRE_GO == 1){
  800b8c:	d0a75e17 	ldw	r2,-25224(gp)
  800b90:	10800058 	cmpnei	r2,r2,1
  800b94:	1000011e 	bne	r2,zero,800b9c <tick+0x1c>
      _GO = 0;
  800b98:	d0278305 	stb	zero,-25076(gp)
   }
   {
      g0 = _GO;
  800b9c:	d0a78303 	ldbu	r2,-25076(gp)
  800ba0:	d0a79345 	stb	r2,-25011(gp)
      g1 = g0;
  800ba4:	d0a79343 	ldbu	r2,-25011(gp)
  800ba8:	d0a763c5 	stb	r2,-25201(gp)
      g2 = g1;
  800bac:	d0a763c3 	ldbu	r2,-25201(gp)
  800bb0:	d0a77585 	stb	r2,-25130(gp)
      g151 =(PRE_g150);
  800bb4:	d0a791c3 	ldbu	r2,-25017(gp)
  800bb8:	d0a774c5 	stb	r2,-25133(gp)
      g149 = g0;
  800bbc:	d0a79343 	ldbu	r2,-25011(gp)
  800bc0:	d0a7a145 	stb	r2,-24955(gp)
      g150 =(g151||g149);
  800bc4:	d0a774c3 	ldbu	r2,-25133(gp)
  800bc8:	10803fcc 	andi	r2,r2,255
  800bcc:	1080201c 	xori	r2,r2,128
  800bd0:	10bfe004 	addi	r2,r2,-128
  800bd4:	1000051e 	bne	r2,zero,800bec <tick+0x6c>
  800bd8:	d0a7a143 	ldbu	r2,-24955(gp)
  800bdc:	10803fcc 	andi	r2,r2,255
  800be0:	1080201c 	xori	r2,r2,128
  800be4:	10bfe004 	addi	r2,r2,-128
  800be8:	10000226 	beq	r2,zero,800bf4 <tick+0x74>
  800bec:	00800044 	movi	r2,1
  800bf0:	00000106 	br	800bf8 <tick+0x78>
  800bf4:	0005883a 	mov	r2,zero
  800bf8:	d0a76205 	stb	r2,-25208(gp)
      if(g150){
  800bfc:	d0a76203 	ldbu	r2,-25208(gp)
  800c00:	10803fcc 	andi	r2,r2,255
  800c04:	1080201c 	xori	r2,r2,128
  800c08:	10bfe004 	addi	r2,r2,-128
  800c0c:	10001826 	beq	r2,zero,800c70 <tick+0xf0>
         stop_URI = 0;
  800c10:	d0278145 	stb	zero,-25083(gp)
         stop_VRP = 0;
  800c14:	d0279985 	stb	zero,-24986(gp)
         stop_PVARP = 0;
  800c18:	d02794c5 	stb	zero,-25005(gp)
         stop_AVI = 0;
  800c1c:	d0277145 	stb	zero,-25147(gp)
         start_AVI = 0;
  800c20:	d0277105 	stb	zero,-25148(gp)
         stop_LRI = 0;
  800c24:	d0279cc5 	stb	zero,-24973(gp)
         stop_AEI = 0;
  800c28:	d0277805 	stb	zero,-25120(gp)
         Vpace = 0;
  800c2c:	d0276385 	stb	zero,-25202(gp)
         start_PVARP = 0;
  800c30:	d0278345 	stb	zero,-25075(gp)
         start_AEI = 0;
  800c34:	d0278885 	stb	zero,-25054(gp)
         Apace = 0;
  800c38:	d0277c85 	stb	zero,-25102(gp)
         start_VRP = 0;
  800c3c:	d0276a85 	stb	zero,-25174(gp)
         start_LRI = 0;
  800c40:	d0278a45 	stb	zero,-25047(gp)
         start_URI = 0;
  800c44:	d0278e05 	stb	zero,-25032(gp)
         AVI_counting = 0;
  800c48:	d027a105 	stb	zero,-24956(gp)
         PVARP_counting = 0;
  800c4c:	d0276c85 	stb	zero,-25166(gp)
         VRP_counting = 0;
  800c50:	d0278105 	stb	zero,-25084(gp)
         AEI_counting = 0;
  800c54:	d0277c05 	stb	zero,-25104(gp)
         LRI_counting = 0;
  800c58:	d0277005 	stb	zero,-25152(gp)
         URI_counting = 0;
  800c5c:	d0276f45 	stb	zero,-25155(gp)
         AR = 0;
  800c60:	d0278e85 	stb	zero,-25030(gp)
         VR = 0;
  800c64:	d0276d85 	stb	zero,-25162(gp)
         URI_waiting = 0;
  800c68:	d0278445 	stb	zero,-25071(gp)
         reset_LRI = 0;
  800c6c:	d0276905 	stb	zero,-25180(gp)
      }
      g138 =(PRE_g137);
  800c70:	d0a788c3 	ldbu	r2,-25053(gp)
  800c74:	d0a78a85 	stb	r2,-25046(gp)
      _cg138 = URI_ex;
  800c78:	d0a78043 	ldbu	r2,-25087(gp)
  800c7c:	d0a79885 	stb	r2,-24990(gp)
      g139 =(g138&&(!(_cg138)));
  800c80:	d0a78a83 	ldbu	r2,-25046(gp)
  800c84:	10803fcc 	andi	r2,r2,255
  800c88:	1080201c 	xori	r2,r2,128
  800c8c:	10bfe004 	addi	r2,r2,-128
  800c90:	10000726 	beq	r2,zero,800cb0 <tick+0x130>
  800c94:	d0a79883 	ldbu	r2,-24990(gp)
  800c98:	10803fcc 	andi	r2,r2,255
  800c9c:	1080201c 	xori	r2,r2,128
  800ca0:	10bfe004 	addi	r2,r2,-128
  800ca4:	1000021e 	bne	r2,zero,800cb0 <tick+0x130>
  800ca8:	00800044 	movi	r2,1
  800cac:	00000106 	br	800cb4 <tick+0x134>
  800cb0:	0005883a 	mov	r2,zero
  800cb4:	d0a75605 	stb	r2,-25256(gp)
      if(g139){
  800cb8:	d0a75603 	ldbu	r2,-25256(gp)
  800cbc:	10803fcc 	andi	r2,r2,255
  800cc0:	1080201c 	xori	r2,r2,128
  800cc4:	10bfe004 	addi	r2,r2,-128
  800cc8:	10000226 	beq	r2,zero,800cd4 <tick+0x154>
         URI_counting =(URI_counting||1);
  800ccc:	00800044 	movi	r2,1
  800cd0:	d0a76f45 	stb	r2,-25155(gp)
      }
      g13 =(PRE_g12);
  800cd4:	d0a77343 	ldbu	r2,-25139(gp)
  800cd8:	d0a78c85 	stb	r2,-25038(gp)
      g13b = g13;
  800cdc:	d0a78c83 	ldbu	r2,-25038(gp)
  800ce0:	d0a7a305 	stb	r2,-24948(gp)
      _cg13 =(!(URI_counting));
  800ce4:	d0a76f43 	ldbu	r2,-25155(gp)
  800ce8:	10803fcc 	andi	r2,r2,255
  800cec:	1080201c 	xori	r2,r2,128
  800cf0:	10bfe004 	addi	r2,r2,-128
  800cf4:	1005003a 	cmpeq	r2,r2,zero
  800cf8:	d0a79205 	stb	r2,-25016(gp)
      g14 =(g13b&&(!(_cg13)));
  800cfc:	d0a7a303 	ldbu	r2,-24948(gp)
  800d00:	10803fcc 	andi	r2,r2,255
  800d04:	1080201c 	xori	r2,r2,128
  800d08:	10bfe004 	addi	r2,r2,-128
  800d0c:	10000726 	beq	r2,zero,800d2c <tick+0x1ac>
  800d10:	d0a79203 	ldbu	r2,-25016(gp)
  800d14:	10803fcc 	andi	r2,r2,255
  800d18:	1080201c 	xori	r2,r2,128
  800d1c:	10bfe004 	addi	r2,r2,-128
  800d20:	1000021e 	bne	r2,zero,800d2c <tick+0x1ac>
  800d24:	00800044 	movi	r2,1
  800d28:	00000106 	br	800d30 <tick+0x1b0>
  800d2c:	0005883a 	mov	r2,zero
  800d30:	d0a77b85 	stb	r2,-25106(gp)
      _cg14 = URI_counting;
  800d34:	d0a76f43 	ldbu	r2,-25155(gp)
  800d38:	d0a772c5 	stb	r2,-25141(gp)
      g9 =(PRE_g8);
  800d3c:	d0a76ac3 	ldbu	r2,-25173(gp)
  800d40:	d0a75cc5 	stb	r2,-25229(gp)
      _cg9 = AVI_ex;
  800d44:	d0a77cc3 	ldbu	r2,-25101(gp)
  800d48:	d0a79245 	stb	r2,-25015(gp)
      g10 =((g14&&_cg14)||(g9&&_cg9));
  800d4c:	d0a77b83 	ldbu	r2,-25106(gp)
  800d50:	10803fcc 	andi	r2,r2,255
  800d54:	1080201c 	xori	r2,r2,128
  800d58:	10bfe004 	addi	r2,r2,-128
  800d5c:	10000526 	beq	r2,zero,800d74 <tick+0x1f4>
  800d60:	d0a772c3 	ldbu	r2,-25141(gp)
  800d64:	10803fcc 	andi	r2,r2,255
  800d68:	1080201c 	xori	r2,r2,128
  800d6c:	10bfe004 	addi	r2,r2,-128
  800d70:	10000a1e 	bne	r2,zero,800d9c <tick+0x21c>
  800d74:	d0a75cc3 	ldbu	r2,-25229(gp)
  800d78:	10803fcc 	andi	r2,r2,255
  800d7c:	1080201c 	xori	r2,r2,128
  800d80:	10bfe004 	addi	r2,r2,-128
  800d84:	10000726 	beq	r2,zero,800da4 <tick+0x224>
  800d88:	d0a79243 	ldbu	r2,-25015(gp)
  800d8c:	10803fcc 	andi	r2,r2,255
  800d90:	1080201c 	xori	r2,r2,128
  800d94:	10bfe004 	addi	r2,r2,-128
  800d98:	10000226 	beq	r2,zero,800da4 <tick+0x224>
  800d9c:	00800044 	movi	r2,1
  800da0:	00000106 	br	800da8 <tick+0x228>
  800da4:	0005883a 	mov	r2,zero
  800da8:	d0a7a205 	stb	r2,-24952(gp)
      _cg10 =(!(URI_counting));
  800dac:	d0a76f43 	ldbu	r2,-25155(gp)
  800db0:	10803fcc 	andi	r2,r2,255
  800db4:	1080201c 	xori	r2,r2,128
  800db8:	10bfe004 	addi	r2,r2,-128
  800dbc:	1005003a 	cmpeq	r2,r2,zero
  800dc0:	d0a78545 	stb	r2,-25067(gp)
      g11 =((g13b&&_cg13)||(g10&&_cg10));
  800dc4:	d0a7a303 	ldbu	r2,-24948(gp)
  800dc8:	10803fcc 	andi	r2,r2,255
  800dcc:	1080201c 	xori	r2,r2,128
  800dd0:	10bfe004 	addi	r2,r2,-128
  800dd4:	10000526 	beq	r2,zero,800dec <tick+0x26c>
  800dd8:	d0a79203 	ldbu	r2,-25016(gp)
  800ddc:	10803fcc 	andi	r2,r2,255
  800de0:	1080201c 	xori	r2,r2,128
  800de4:	10bfe004 	addi	r2,r2,-128
  800de8:	10000a1e 	bne	r2,zero,800e14 <tick+0x294>
  800dec:	d0a7a203 	ldbu	r2,-24952(gp)
  800df0:	10803fcc 	andi	r2,r2,255
  800df4:	1080201c 	xori	r2,r2,128
  800df8:	10bfe004 	addi	r2,r2,-128
  800dfc:	10000726 	beq	r2,zero,800e1c <tick+0x29c>
  800e00:	d0a78543 	ldbu	r2,-25067(gp)
  800e04:	10803fcc 	andi	r2,r2,255
  800e08:	1080201c 	xori	r2,r2,128
  800e0c:	10bfe004 	addi	r2,r2,-128
  800e10:	10000226 	beq	r2,zero,800e1c <tick+0x29c>
  800e14:	00800044 	movi	r2,1
  800e18:	00000106 	br	800e20 <tick+0x2a0>
  800e1c:	0005883a 	mov	r2,zero
  800e20:	d0a79745 	stb	r2,-24995(gp)
      if(g11){
  800e24:	d0a79743 	ldbu	r2,-24995(gp)
  800e28:	10803fcc 	andi	r2,r2,255
  800e2c:	1080201c 	xori	r2,r2,128
  800e30:	10bfe004 	addi	r2,r2,-128
  800e34:	10000226 	beq	r2,zero,800e40 <tick+0x2c0>
         Vpace =(Vpace||1);
  800e38:	00800044 	movi	r2,1
  800e3c:	d0a76385 	stb	r2,-25202(gp)
      }
      g4 =(PRE_g3);
  800e40:	d0a75f43 	ldbu	r2,-25219(gp)
  800e44:	d0a75645 	stb	r2,-25255(gp)
      _cg4 = PVARP_ex;
  800e48:	d0a79103 	ldbu	r2,-25020(gp)
  800e4c:	d0a79f05 	stb	r2,-24964(gp)
      g90 =(PRE_g89);
  800e50:	d0a78dc3 	ldbu	r2,-25033(gp)
  800e54:	d0a782c5 	stb	r2,-25077(gp)
      _cg90 = AVI_ex;
  800e58:	d0a77cc3 	ldbu	r2,-25101(gp)
  800e5c:	d0a77605 	stb	r2,-25128(gp)
      g94 =(PRE_g93);
  800e60:	d0a796c3 	ldbu	r2,-24997(gp)
  800e64:	d0a77485 	stb	r2,-25134(gp)
      g91 =((g90&&_cg90)||g94);
  800e68:	d0a782c3 	ldbu	r2,-25077(gp)
  800e6c:	10803fcc 	andi	r2,r2,255
  800e70:	1080201c 	xori	r2,r2,128
  800e74:	10bfe004 	addi	r2,r2,-128
  800e78:	10000526 	beq	r2,zero,800e90 <tick+0x310>
  800e7c:	d0a77603 	ldbu	r2,-25128(gp)
  800e80:	10803fcc 	andi	r2,r2,255
  800e84:	1080201c 	xori	r2,r2,128
  800e88:	10bfe004 	addi	r2,r2,-128
  800e8c:	1000051e 	bne	r2,zero,800ea4 <tick+0x324>
  800e90:	d0a77483 	ldbu	r2,-25134(gp)
  800e94:	10803fcc 	andi	r2,r2,255
  800e98:	1080201c 	xori	r2,r2,128
  800e9c:	10bfe004 	addi	r2,r2,-128
  800ea0:	10000226 	beq	r2,zero,800eac <tick+0x32c>
  800ea4:	00800044 	movi	r2,1
  800ea8:	00000106 	br	800eb0 <tick+0x330>
  800eac:	0005883a 	mov	r2,zero
  800eb0:	d0a75585 	stb	r2,-25258(gp)
      _cg91 = URI_ex;
  800eb4:	d0a78043 	ldbu	r2,-25087(gp)
  800eb8:	d0a793c5 	stb	r2,-25009(gp)
      g92 =(g91&&_cg91);
  800ebc:	d0a75583 	ldbu	r2,-25258(gp)
  800ec0:	10803fcc 	andi	r2,r2,255
  800ec4:	1080201c 	xori	r2,r2,128
  800ec8:	10bfe004 	addi	r2,r2,-128
  800ecc:	10000726 	beq	r2,zero,800eec <tick+0x36c>
  800ed0:	d0a793c3 	ldbu	r2,-25009(gp)
  800ed4:	10803fcc 	andi	r2,r2,255
  800ed8:	1080201c 	xori	r2,r2,128
  800edc:	10bfe004 	addi	r2,r2,-128
  800ee0:	10000226 	beq	r2,zero,800eec <tick+0x36c>
  800ee4:	00800044 	movi	r2,1
  800ee8:	00000106 	br	800ef0 <tick+0x370>
  800eec:	0005883a 	mov	r2,zero
  800ef0:	d0a76345 	stb	r2,-25203(gp)
      if(g92){
  800ef4:	d0a76343 	ldbu	r2,-25203(gp)
  800ef8:	10803fcc 	andi	r2,r2,255
  800efc:	1080201c 	xori	r2,r2,128
  800f00:	10bfe004 	addi	r2,r2,-128
  800f04:	10000226 	beq	r2,zero,800f10 <tick+0x390>
         Vpace =(Vpace||1);
  800f08:	00800044 	movi	r2,1
  800f0c:	d0a76385 	stb	r2,-25202(gp)
      }
      g68 =(PRE_g67);
  800f10:	d0a78083 	ldbu	r2,-25086(gp)
  800f14:	d0a79645 	stb	r2,-24999(gp)
      _cg68 = Vsense;
  800f18:	d0a77903 	ldbu	r2,-25116(gp)
  800f1c:	d0a77385 	stb	r2,-25138(gp)
      g71 =(g68&&(!(_cg68)));
  800f20:	d0a79643 	ldbu	r2,-24999(gp)
  800f24:	10803fcc 	andi	r2,r2,255
  800f28:	1080201c 	xori	r2,r2,128
  800f2c:	10bfe004 	addi	r2,r2,-128
  800f30:	10000726 	beq	r2,zero,800f50 <tick+0x3d0>
  800f34:	d0a77383 	ldbu	r2,-25138(gp)
  800f38:	10803fcc 	andi	r2,r2,255
  800f3c:	1080201c 	xori	r2,r2,128
  800f40:	10bfe004 	addi	r2,r2,-128
  800f44:	1000021e 	bne	r2,zero,800f50 <tick+0x3d0>
  800f48:	00800044 	movi	r2,1
  800f4c:	00000106 	br	800f54 <tick+0x3d4>
  800f50:	0005883a 	mov	r2,zero
  800f54:	d0a76485 	stb	r2,-25198(gp)
      _cg71 = Vpace;
  800f58:	d0a76383 	ldbu	r2,-25202(gp)
  800f5c:	d0a78245 	stb	r2,-25079(gp)
      g73 =(g71&&(!(_cg71)));
  800f60:	d0a76483 	ldbu	r2,-25198(gp)
  800f64:	10803fcc 	andi	r2,r2,255
  800f68:	1080201c 	xori	r2,r2,128
  800f6c:	10bfe004 	addi	r2,r2,-128
  800f70:	10000726 	beq	r2,zero,800f90 <tick+0x410>
  800f74:	d0a78243 	ldbu	r2,-25079(gp)
  800f78:	10803fcc 	andi	r2,r2,255
  800f7c:	1080201c 	xori	r2,r2,128
  800f80:	10bfe004 	addi	r2,r2,-128
  800f84:	1000021e 	bne	r2,zero,800f90 <tick+0x410>
  800f88:	00800044 	movi	r2,1
  800f8c:	00000106 	br	800f94 <tick+0x414>
  800f90:	0005883a 	mov	r2,zero
  800f94:	d0a798c5 	stb	r2,-24989(gp)
      _cg73 = LRI_ex;
  800f98:	d0a776c3 	ldbu	r2,-25125(gp)
  800f9c:	d0a76145 	stb	r2,-25211(gp)
      g74 =(g73&&_cg73);
  800fa0:	d0a798c3 	ldbu	r2,-24989(gp)
  800fa4:	10803fcc 	andi	r2,r2,255
  800fa8:	1080201c 	xori	r2,r2,128
  800fac:	10bfe004 	addi	r2,r2,-128
  800fb0:	10000726 	beq	r2,zero,800fd0 <tick+0x450>
  800fb4:	d0a76143 	ldbu	r2,-25211(gp)
  800fb8:	10803fcc 	andi	r2,r2,255
  800fbc:	1080201c 	xori	r2,r2,128
  800fc0:	10bfe004 	addi	r2,r2,-128
  800fc4:	10000226 	beq	r2,zero,800fd0 <tick+0x450>
  800fc8:	00800044 	movi	r2,1
  800fcc:	00000106 	br	800fd4 <tick+0x454>
  800fd0:	0005883a 	mov	r2,zero
  800fd4:	d0a7a3c5 	stb	r2,-24945(gp)
      if(g74){
  800fd8:	d0a7a3c3 	ldbu	r2,-24945(gp)
  800fdc:	10803fcc 	andi	r2,r2,255
  800fe0:	1080201c 	xori	r2,r2,128
  800fe4:	10bfe004 	addi	r2,r2,-128
  800fe8:	10000226 	beq	r2,zero,800ff4 <tick+0x474>
         Vpace =(Vpace||1);
  800fec:	00800044 	movi	r2,1
  800ff0:	d0a76385 	stb	r2,-25202(gp)
      }
      g15 =(g9&&(!(_cg9)));
  800ff4:	d0a75cc3 	ldbu	r2,-25229(gp)
  800ff8:	10803fcc 	andi	r2,r2,255
  800ffc:	1080201c 	xori	r2,r2,128
  801000:	10bfe004 	addi	r2,r2,-128
  801004:	10000726 	beq	r2,zero,801024 <tick+0x4a4>
  801008:	d0a79243 	ldbu	r2,-25015(gp)
  80100c:	10803fcc 	andi	r2,r2,255
  801010:	1080201c 	xori	r2,r2,128
  801014:	10bfe004 	addi	r2,r2,-128
  801018:	1000021e 	bne	r2,zero,801024 <tick+0x4a4>
  80101c:	00800044 	movi	r2,1
  801020:	00000106 	br	801028 <tick+0x4a8>
  801024:	0005883a 	mov	r2,zero
  801028:	d0a78285 	stb	r2,-25078(gp)
      _cg15 = Vsense;
  80102c:	d0a77903 	ldbu	r2,-25116(gp)
  801030:	d0a760c5 	stb	r2,-25213(gp)
      g17 =(g15&&(!(_cg15)));
  801034:	d0a78283 	ldbu	r2,-25078(gp)
  801038:	10803fcc 	andi	r2,r2,255
  80103c:	1080201c 	xori	r2,r2,128
  801040:	10bfe004 	addi	r2,r2,-128
  801044:	10000726 	beq	r2,zero,801064 <tick+0x4e4>
  801048:	d0a760c3 	ldbu	r2,-25213(gp)
  80104c:	10803fcc 	andi	r2,r2,255
  801050:	1080201c 	xori	r2,r2,128
  801054:	10bfe004 	addi	r2,r2,-128
  801058:	1000021e 	bne	r2,zero,801064 <tick+0x4e4>
  80105c:	00800044 	movi	r2,1
  801060:	00000106 	br	801068 <tick+0x4e8>
  801064:	0005883a 	mov	r2,zero
  801068:	d0a76745 	stb	r2,-25187(gp)
      _cg17 = Vpace;
  80106c:	d0a76383 	ldbu	r2,-25202(gp)
  801070:	d0a79405 	stb	r2,-25008(gp)
      g18 =(g17&&_cg17);
  801074:	d0a76743 	ldbu	r2,-25187(gp)
  801078:	10803fcc 	andi	r2,r2,255
  80107c:	1080201c 	xori	r2,r2,128
  801080:	10bfe004 	addi	r2,r2,-128
  801084:	10000726 	beq	r2,zero,8010a4 <tick+0x524>
  801088:	d0a79403 	ldbu	r2,-25008(gp)
  80108c:	10803fcc 	andi	r2,r2,255
  801090:	1080201c 	xori	r2,r2,128
  801094:	10bfe004 	addi	r2,r2,-128
  801098:	10000226 	beq	r2,zero,8010a4 <tick+0x524>
  80109c:	00800044 	movi	r2,1
  8010a0:	00000106 	br	8010a8 <tick+0x528>
  8010a4:	0005883a 	mov	r2,zero
  8010a8:	d0a76b05 	stb	r2,-25172(gp)
      if(g18){
  8010ac:	d0a76b03 	ldbu	r2,-25172(gp)
  8010b0:	10803fcc 	andi	r2,r2,255
  8010b4:	1080201c 	xori	r2,r2,128
  8010b8:	10bfe004 	addi	r2,r2,-128
  8010bc:	10000226 	beq	r2,zero,8010c8 <tick+0x548>
         stop_AVI =(stop_AVI||1);
  8010c0:	00800044 	movi	r2,1
  8010c4:	d0a77145 	stb	r2,-25147(gp)
      }
      g16 =(g15&&_cg15);
  8010c8:	d0a78283 	ldbu	r2,-25078(gp)
  8010cc:	10803fcc 	andi	r2,r2,255
  8010d0:	1080201c 	xori	r2,r2,128
  8010d4:	10bfe004 	addi	r2,r2,-128
  8010d8:	10000726 	beq	r2,zero,8010f8 <tick+0x578>
  8010dc:	d0a760c3 	ldbu	r2,-25213(gp)
  8010e0:	10803fcc 	andi	r2,r2,255
  8010e4:	1080201c 	xori	r2,r2,128
  8010e8:	10bfe004 	addi	r2,r2,-128
  8010ec:	10000226 	beq	r2,zero,8010f8 <tick+0x578>
  8010f0:	00800044 	movi	r2,1
  8010f4:	00000106 	br	8010fc <tick+0x57c>
  8010f8:	0005883a 	mov	r2,zero
  8010fc:	d0a79545 	stb	r2,-25003(gp)
      if(g16){
  801100:	d0a79543 	ldbu	r2,-25003(gp)
  801104:	10803fcc 	andi	r2,r2,255
  801108:	1080201c 	xori	r2,r2,128
  80110c:	10bfe004 	addi	r2,r2,-128
  801110:	10000226 	beq	r2,zero,80111c <tick+0x59c>
         stop_AVI =(stop_AVI||1);
  801114:	00800044 	movi	r2,1
  801118:	d0a77145 	stb	r2,-25147(gp)
      }
      g3 =(g11||(g4&&(!(_cg4)))||g18||g2||g16);
  80111c:	d0a79743 	ldbu	r2,-24995(gp)
  801120:	10803fcc 	andi	r2,r2,255
  801124:	1080201c 	xori	r2,r2,128
  801128:	10bfe004 	addi	r2,r2,-128
  80112c:	1000191e 	bne	r2,zero,801194 <tick+0x614>
  801130:	d0a75643 	ldbu	r2,-25255(gp)
  801134:	10803fcc 	andi	r2,r2,255
  801138:	1080201c 	xori	r2,r2,128
  80113c:	10bfe004 	addi	r2,r2,-128
  801140:	10000526 	beq	r2,zero,801158 <tick+0x5d8>
  801144:	d0a79f03 	ldbu	r2,-24964(gp)
  801148:	10803fcc 	andi	r2,r2,255
  80114c:	1080201c 	xori	r2,r2,128
  801150:	10bfe004 	addi	r2,r2,-128
  801154:	10000f26 	beq	r2,zero,801194 <tick+0x614>
  801158:	d0a76b03 	ldbu	r2,-25172(gp)
  80115c:	10803fcc 	andi	r2,r2,255
  801160:	1080201c 	xori	r2,r2,128
  801164:	10bfe004 	addi	r2,r2,-128
  801168:	10000a1e 	bne	r2,zero,801194 <tick+0x614>
  80116c:	d0a77583 	ldbu	r2,-25130(gp)
  801170:	10803fcc 	andi	r2,r2,255
  801174:	1080201c 	xori	r2,r2,128
  801178:	10bfe004 	addi	r2,r2,-128
  80117c:	1000051e 	bne	r2,zero,801194 <tick+0x614>
  801180:	d0a79543 	ldbu	r2,-25003(gp)
  801184:	10803fcc 	andi	r2,r2,255
  801188:	1080201c 	xori	r2,r2,128
  80118c:	10bfe004 	addi	r2,r2,-128
  801190:	10000226 	beq	r2,zero,80119c <tick+0x61c>
  801194:	00800044 	movi	r2,1
  801198:	00000106 	br	8011a0 <tick+0x620>
  80119c:	0005883a 	mov	r2,zero
  8011a0:	d0a75a85 	stb	r2,-25238(gp)
      g28 =(PRE_g27);
  8011a4:	d0a75b83 	ldbu	r2,-25234(gp)
  8011a8:	d0a79845 	stb	r2,-24991(gp)
      _cg28 = Asense;
  8011ac:	d0a792c3 	ldbu	r2,-25013(gp)
  8011b0:	d0a771c5 	stb	r2,-25145(gp)
      g30 =(g28&&(!(_cg28)));
  8011b4:	d0a79843 	ldbu	r2,-24991(gp)
  8011b8:	10803fcc 	andi	r2,r2,255
  8011bc:	1080201c 	xori	r2,r2,128
  8011c0:	10bfe004 	addi	r2,r2,-128
  8011c4:	10000726 	beq	r2,zero,8011e4 <tick+0x664>
  8011c8:	d0a771c3 	ldbu	r2,-25145(gp)
  8011cc:	10803fcc 	andi	r2,r2,255
  8011d0:	1080201c 	xori	r2,r2,128
  8011d4:	10bfe004 	addi	r2,r2,-128
  8011d8:	1000021e 	bne	r2,zero,8011e4 <tick+0x664>
  8011dc:	00800044 	movi	r2,1
  8011e0:	00000106 	br	8011e8 <tick+0x668>
  8011e4:	0005883a 	mov	r2,zero
  8011e8:	d0a79485 	stb	r2,-25006(gp)
      _cg30 = AEI_ex;
  8011ec:	d0a75ac3 	ldbu	r2,-25237(gp)
  8011f0:	d0a79505 	stb	r2,-25004(gp)
      g31 =(g30&&_cg30);
  8011f4:	d0a79483 	ldbu	r2,-25006(gp)
  8011f8:	10803fcc 	andi	r2,r2,255
  8011fc:	1080201c 	xori	r2,r2,128
  801200:	10bfe004 	addi	r2,r2,-128
  801204:	10000726 	beq	r2,zero,801224 <tick+0x6a4>
  801208:	d0a79503 	ldbu	r2,-25004(gp)
  80120c:	10803fcc 	andi	r2,r2,255
  801210:	1080201c 	xori	r2,r2,128
  801214:	10bfe004 	addi	r2,r2,-128
  801218:	10000226 	beq	r2,zero,801224 <tick+0x6a4>
  80121c:	00800044 	movi	r2,1
  801220:	00000106 	br	801228 <tick+0x6a8>
  801224:	0005883a 	mov	r2,zero
  801228:	d0a76805 	stb	r2,-25184(gp)
      if(g31){
  80122c:	d0a76803 	ldbu	r2,-25184(gp)
  801230:	10803fcc 	andi	r2,r2,255
  801234:	1080201c 	xori	r2,r2,128
  801238:	10bfe004 	addi	r2,r2,-128
  80123c:	10000226 	beq	r2,zero,801248 <tick+0x6c8>
         Apace =(Apace||1);
  801240:	00800044 	movi	r2,1
  801244:	d0a77c85 	stb	r2,-25102(gp)
      }
      g6 =(PRE_g5);
  801248:	d0a79c83 	ldbu	r2,-24974(gp)
  80124c:	d0a78fc5 	stb	r2,-25025(gp)
      _cg6 = Asense;
  801250:	d0a792c3 	ldbu	r2,-25013(gp)
  801254:	d0a77c45 	stb	r2,-25103(gp)
      g19 =(g6&&(!(_cg6)));
  801258:	d0a78fc3 	ldbu	r2,-25025(gp)
  80125c:	10803fcc 	andi	r2,r2,255
  801260:	1080201c 	xori	r2,r2,128
  801264:	10bfe004 	addi	r2,r2,-128
  801268:	10000726 	beq	r2,zero,801288 <tick+0x708>
  80126c:	d0a77c43 	ldbu	r2,-25103(gp)
  801270:	10803fcc 	andi	r2,r2,255
  801274:	1080201c 	xori	r2,r2,128
  801278:	10bfe004 	addi	r2,r2,-128
  80127c:	1000021e 	bne	r2,zero,801288 <tick+0x708>
  801280:	00800044 	movi	r2,1
  801284:	00000106 	br	80128c <tick+0x70c>
  801288:	0005883a 	mov	r2,zero
  80128c:	d0a756c5 	stb	r2,-25253(gp)
      _cg19 = Apace;
  801290:	d0a77c83 	ldbu	r2,-25102(gp)
  801294:	d0a79045 	stb	r2,-25023(gp)
      g5 =((g4&&_cg4)||(g19&&(!(_cg19))));
  801298:	d0a75643 	ldbu	r2,-25255(gp)
  80129c:	10803fcc 	andi	r2,r2,255
  8012a0:	1080201c 	xori	r2,r2,128
  8012a4:	10bfe004 	addi	r2,r2,-128
  8012a8:	10000526 	beq	r2,zero,8012c0 <tick+0x740>
  8012ac:	d0a79f03 	ldbu	r2,-24964(gp)
  8012b0:	10803fcc 	andi	r2,r2,255
  8012b4:	1080201c 	xori	r2,r2,128
  8012b8:	10bfe004 	addi	r2,r2,-128
  8012bc:	10000a1e 	bne	r2,zero,8012e8 <tick+0x768>
  8012c0:	d0a756c3 	ldbu	r2,-25253(gp)
  8012c4:	10803fcc 	andi	r2,r2,255
  8012c8:	1080201c 	xori	r2,r2,128
  8012cc:	10bfe004 	addi	r2,r2,-128
  8012d0:	10000726 	beq	r2,zero,8012f0 <tick+0x770>
  8012d4:	d0a79043 	ldbu	r2,-25023(gp)
  8012d8:	10803fcc 	andi	r2,r2,255
  8012dc:	1080201c 	xori	r2,r2,128
  8012e0:	10bfe004 	addi	r2,r2,-128
  8012e4:	1000021e 	bne	r2,zero,8012f0 <tick+0x770>
  8012e8:	00800044 	movi	r2,1
  8012ec:	00000106 	br	8012f4 <tick+0x774>
  8012f0:	0005883a 	mov	r2,zero
  8012f4:	d0a77445 	stb	r2,-25135(gp)
      g7 =((g6&&_cg6)||(g19&&_cg19));
  8012f8:	d0a78fc3 	ldbu	r2,-25025(gp)
  8012fc:	10803fcc 	andi	r2,r2,255
  801300:	1080201c 	xori	r2,r2,128
  801304:	10bfe004 	addi	r2,r2,-128
  801308:	10000526 	beq	r2,zero,801320 <tick+0x7a0>
  80130c:	d0a77c43 	ldbu	r2,-25103(gp)
  801310:	10803fcc 	andi	r2,r2,255
  801314:	1080201c 	xori	r2,r2,128
  801318:	10bfe004 	addi	r2,r2,-128
  80131c:	10000a1e 	bne	r2,zero,801348 <tick+0x7c8>
  801320:	d0a756c3 	ldbu	r2,-25253(gp)
  801324:	10803fcc 	andi	r2,r2,255
  801328:	1080201c 	xori	r2,r2,128
  80132c:	10bfe004 	addi	r2,r2,-128
  801330:	10000726 	beq	r2,zero,801350 <tick+0x7d0>
  801334:	d0a79043 	ldbu	r2,-25023(gp)
  801338:	10803fcc 	andi	r2,r2,255
  80133c:	1080201c 	xori	r2,r2,128
  801340:	10bfe004 	addi	r2,r2,-128
  801344:	10000226 	beq	r2,zero,801350 <tick+0x7d0>
  801348:	00800044 	movi	r2,1
  80134c:	00000106 	br	801354 <tick+0x7d4>
  801350:	0005883a 	mov	r2,zero
  801354:	d0a775c5 	stb	r2,-25129(gp)
      if(g7){
  801358:	d0a775c3 	ldbu	r2,-25129(gp)
  80135c:	10803fcc 	andi	r2,r2,255
  801360:	1080201c 	xori	r2,r2,128
  801364:	10bfe004 	addi	r2,r2,-128
  801368:	10000226 	beq	r2,zero,801374 <tick+0x7f4>
         start_AVI =(start_AVI||1);
  80136c:	00800044 	movi	r2,1
  801370:	d0a77105 	stb	r2,-25148(gp)
      }
      g8 =((g17&&(!(_cg17)))||g7);
  801374:	d0a76743 	ldbu	r2,-25187(gp)
  801378:	10803fcc 	andi	r2,r2,255
  80137c:	1080201c 	xori	r2,r2,128
  801380:	10bfe004 	addi	r2,r2,-128
  801384:	10000526 	beq	r2,zero,80139c <tick+0x81c>
  801388:	d0a79403 	ldbu	r2,-25008(gp)
  80138c:	10803fcc 	andi	r2,r2,255
  801390:	1080201c 	xori	r2,r2,128
  801394:	10bfe004 	addi	r2,r2,-128
  801398:	10000526 	beq	r2,zero,8013b0 <tick+0x830>
  80139c:	d0a775c3 	ldbu	r2,-25129(gp)
  8013a0:	10803fcc 	andi	r2,r2,255
  8013a4:	1080201c 	xori	r2,r2,128
  8013a8:	10bfe004 	addi	r2,r2,-128
  8013ac:	10000226 	beq	r2,zero,8013b8 <tick+0x838>
  8013b0:	00800044 	movi	r2,1
  8013b4:	00000106 	br	8013bc <tick+0x83c>
  8013b8:	0005883a 	mov	r2,zero
  8013bc:	d0a78d45 	stb	r2,-25035(gp)
      g12 =((g14&&(!(_cg14)))||(g10&&(!(_cg10))));
  8013c0:	d0a77b83 	ldbu	r2,-25106(gp)
  8013c4:	10803fcc 	andi	r2,r2,255
  8013c8:	1080201c 	xori	r2,r2,128
  8013cc:	10bfe004 	addi	r2,r2,-128
  8013d0:	10000526 	beq	r2,zero,8013e8 <tick+0x868>
  8013d4:	d0a772c3 	ldbu	r2,-25141(gp)
  8013d8:	10803fcc 	andi	r2,r2,255
  8013dc:	1080201c 	xori	r2,r2,128
  8013e0:	10bfe004 	addi	r2,r2,-128
  8013e4:	10000a26 	beq	r2,zero,801410 <tick+0x890>
  8013e8:	d0a7a203 	ldbu	r2,-24952(gp)
  8013ec:	10803fcc 	andi	r2,r2,255
  8013f0:	1080201c 	xori	r2,r2,128
  8013f4:	10bfe004 	addi	r2,r2,-128
  8013f8:	10000726 	beq	r2,zero,801418 <tick+0x898>
  8013fc:	d0a78543 	ldbu	r2,-25067(gp)
  801400:	10803fcc 	andi	r2,r2,255
  801404:	1080201c 	xori	r2,r2,128
  801408:	10bfe004 	addi	r2,r2,-128
  80140c:	1000021e 	bne	r2,zero,801418 <tick+0x898>
  801410:	00800044 	movi	r2,1
  801414:	00000106 	br	80141c <tick+0x89c>
  801418:	0005883a 	mov	r2,zero
  80141c:	d0a765c5 	stb	r2,-25193(gp)
      g21 = g1;
  801420:	d0a763c3 	ldbu	r2,-25201(gp)
  801424:	d0a77245 	stb	r2,-25143(gp)
      g29 =(g28&&_cg28);
  801428:	d0a79843 	ldbu	r2,-24991(gp)
  80142c:	10803fcc 	andi	r2,r2,255
  801430:	1080201c 	xori	r2,r2,128
  801434:	10bfe004 	addi	r2,r2,-128
  801438:	10000726 	beq	r2,zero,801458 <tick+0x8d8>
  80143c:	d0a771c3 	ldbu	r2,-25145(gp)
  801440:	10803fcc 	andi	r2,r2,255
  801444:	1080201c 	xori	r2,r2,128
  801448:	10bfe004 	addi	r2,r2,-128
  80144c:	10000226 	beq	r2,zero,801458 <tick+0x8d8>
  801450:	00800044 	movi	r2,1
  801454:	00000106 	br	80145c <tick+0x8dc>
  801458:	0005883a 	mov	r2,zero
  80145c:	d0a79ec5 	stb	r2,-24965(gp)
      if(g29){
  801460:	d0a79ec3 	ldbu	r2,-24965(gp)
  801464:	10803fcc 	andi	r2,r2,255
  801468:	1080201c 	xori	r2,r2,128
  80146c:	10bfe004 	addi	r2,r2,-128
  801470:	10000226 	beq	r2,zero,80147c <tick+0x8fc>
         stop_AEI =(stop_AEI||1);
  801474:	00800044 	movi	r2,1
  801478:	d0a77805 	stb	r2,-25120(gp)
      }
      g23 =(PRE_g22);
  80147c:	d0a780c3 	ldbu	r2,-25085(gp)
  801480:	d0a77a45 	stb	r2,-25111(gp)
      g23b = g23;
  801484:	d0a77a43 	ldbu	r2,-25111(gp)
  801488:	d0a78585 	stb	r2,-25066(gp)
      _cg23 = Vpace;
  80148c:	d0a76383 	ldbu	r2,-25202(gp)
  801490:	d0a79b85 	stb	r2,-24978(gp)
      g32 =(g23b&&(!(_cg23)));
  801494:	d0a78583 	ldbu	r2,-25066(gp)
  801498:	10803fcc 	andi	r2,r2,255
  80149c:	1080201c 	xori	r2,r2,128
  8014a0:	10bfe004 	addi	r2,r2,-128
  8014a4:	10000726 	beq	r2,zero,8014c4 <tick+0x944>
  8014a8:	d0a79b83 	ldbu	r2,-24978(gp)
  8014ac:	10803fcc 	andi	r2,r2,255
  8014b0:	1080201c 	xori	r2,r2,128
  8014b4:	10bfe004 	addi	r2,r2,-128
  8014b8:	1000021e 	bne	r2,zero,8014c4 <tick+0x944>
  8014bc:	00800044 	movi	r2,1
  8014c0:	00000106 	br	8014c8 <tick+0x948>
  8014c4:	0005883a 	mov	r2,zero
  8014c8:	d0a79a45 	stb	r2,-24983(gp)
      _cg32 = Vsense;
  8014cc:	d0a77903 	ldbu	r2,-25116(gp)
  8014d0:	d0a7a0c5 	stb	r2,-24957(gp)
      g22 =(g29||g21||g31||(g32&&(!(_cg32))));
  8014d4:	d0a79ec3 	ldbu	r2,-24965(gp)
  8014d8:	10803fcc 	andi	r2,r2,255
  8014dc:	1080201c 	xori	r2,r2,128
  8014e0:	10bfe004 	addi	r2,r2,-128
  8014e4:	1000141e 	bne	r2,zero,801538 <tick+0x9b8>
  8014e8:	d0a77243 	ldbu	r2,-25143(gp)
  8014ec:	10803fcc 	andi	r2,r2,255
  8014f0:	1080201c 	xori	r2,r2,128
  8014f4:	10bfe004 	addi	r2,r2,-128
  8014f8:	10000f1e 	bne	r2,zero,801538 <tick+0x9b8>
  8014fc:	d0a76803 	ldbu	r2,-25184(gp)
  801500:	10803fcc 	andi	r2,r2,255
  801504:	1080201c 	xori	r2,r2,128
  801508:	10bfe004 	addi	r2,r2,-128
  80150c:	10000a1e 	bne	r2,zero,801538 <tick+0x9b8>
  801510:	d0a79a43 	ldbu	r2,-24983(gp)
  801514:	10803fcc 	andi	r2,r2,255
  801518:	1080201c 	xori	r2,r2,128
  80151c:	10bfe004 	addi	r2,r2,-128
  801520:	10000726 	beq	r2,zero,801540 <tick+0x9c0>
  801524:	d0a7a0c3 	ldbu	r2,-24957(gp)
  801528:	10803fcc 	andi	r2,r2,255
  80152c:	1080201c 	xori	r2,r2,128
  801530:	10bfe004 	addi	r2,r2,-128
  801534:	1000021e 	bne	r2,zero,801540 <tick+0x9c0>
  801538:	00800044 	movi	r2,1
  80153c:	00000106 	br	801544 <tick+0x9c4>
  801540:	0005883a 	mov	r2,zero
  801544:	d0a797c5 	stb	r2,-24993(gp)
      g24 =((g32&&_cg32)||(g23b&&_cg23));
  801548:	d0a79a43 	ldbu	r2,-24983(gp)
  80154c:	10803fcc 	andi	r2,r2,255
  801550:	1080201c 	xori	r2,r2,128
  801554:	10bfe004 	addi	r2,r2,-128
  801558:	10000526 	beq	r2,zero,801570 <tick+0x9f0>
  80155c:	d0a7a0c3 	ldbu	r2,-24957(gp)
  801560:	10803fcc 	andi	r2,r2,255
  801564:	1080201c 	xori	r2,r2,128
  801568:	10bfe004 	addi	r2,r2,-128
  80156c:	10000a1e 	bne	r2,zero,801598 <tick+0xa18>
  801570:	d0a78583 	ldbu	r2,-25066(gp)
  801574:	10803fcc 	andi	r2,r2,255
  801578:	1080201c 	xori	r2,r2,128
  80157c:	10bfe004 	addi	r2,r2,-128
  801580:	10000726 	beq	r2,zero,8015a0 <tick+0xa20>
  801584:	d0a79b83 	ldbu	r2,-24978(gp)
  801588:	10803fcc 	andi	r2,r2,255
  80158c:	1080201c 	xori	r2,r2,128
  801590:	10bfe004 	addi	r2,r2,-128
  801594:	10000226 	beq	r2,zero,8015a0 <tick+0xa20>
  801598:	00800044 	movi	r2,1
  80159c:	00000106 	br	8015a4 <tick+0xa24>
  8015a0:	0005883a 	mov	r2,zero
  8015a4:	d0a79f85 	stb	r2,-24962(gp)
      if(g24){
  8015a8:	d0a79f83 	ldbu	r2,-24962(gp)
  8015ac:	10803fcc 	andi	r2,r2,255
  8015b0:	1080201c 	xori	r2,r2,128
  8015b4:	10bfe004 	addi	r2,r2,-128
  8015b8:	10000226 	beq	r2,zero,8015c4 <tick+0xa44>
         start_AEI =(start_AEI||1);
  8015bc:	00800044 	movi	r2,1
  8015c0:	d0a78885 	stb	r2,-25054(gp)
      }
      g26 =(PRE_g25);
  8015c4:	d0a77743 	ldbu	r2,-25123(gp)
  8015c8:	d0a7a285 	stb	r2,-24950(gp)
      _cg26 = PVARP_ex;
  8015cc:	d0a79103 	ldbu	r2,-25020(gp)
  8015d0:	d0a769c5 	stb	r2,-25177(gp)
      g25 =((g26&&(!(_cg26)))||g24);
  8015d4:	d0a7a283 	ldbu	r2,-24950(gp)
  8015d8:	10803fcc 	andi	r2,r2,255
  8015dc:	1080201c 	xori	r2,r2,128
  8015e0:	10bfe004 	addi	r2,r2,-128
  8015e4:	10000526 	beq	r2,zero,8015fc <tick+0xa7c>
  8015e8:	d0a769c3 	ldbu	r2,-25177(gp)
  8015ec:	10803fcc 	andi	r2,r2,255
  8015f0:	1080201c 	xori	r2,r2,128
  8015f4:	10bfe004 	addi	r2,r2,-128
  8015f8:	10000526 	beq	r2,zero,801610 <tick+0xa90>
  8015fc:	d0a79f83 	ldbu	r2,-24962(gp)
  801600:	10803fcc 	andi	r2,r2,255
  801604:	1080201c 	xori	r2,r2,128
  801608:	10bfe004 	addi	r2,r2,-128
  80160c:	10000226 	beq	r2,zero,801618 <tick+0xa98>
  801610:	00800044 	movi	r2,1
  801614:	00000106 	br	80161c <tick+0xa9c>
  801618:	0005883a 	mov	r2,zero
  80161c:	d0a79685 	stb	r2,-24998(gp)
      g27 =((g26&&_cg26)||(g30&&(!(_cg30))));
  801620:	d0a7a283 	ldbu	r2,-24950(gp)
  801624:	10803fcc 	andi	r2,r2,255
  801628:	1080201c 	xori	r2,r2,128
  80162c:	10bfe004 	addi	r2,r2,-128
  801630:	10000526 	beq	r2,zero,801648 <tick+0xac8>
  801634:	d0a769c3 	ldbu	r2,-25177(gp)
  801638:	10803fcc 	andi	r2,r2,255
  80163c:	1080201c 	xori	r2,r2,128
  801640:	10bfe004 	addi	r2,r2,-128
  801644:	10000a1e 	bne	r2,zero,801670 <tick+0xaf0>
  801648:	d0a79483 	ldbu	r2,-25006(gp)
  80164c:	10803fcc 	andi	r2,r2,255
  801650:	1080201c 	xori	r2,r2,128
  801654:	10bfe004 	addi	r2,r2,-128
  801658:	10000726 	beq	r2,zero,801678 <tick+0xaf8>
  80165c:	d0a79503 	ldbu	r2,-25004(gp)
  801660:	10803fcc 	andi	r2,r2,255
  801664:	1080201c 	xori	r2,r2,128
  801668:	10bfe004 	addi	r2,r2,-128
  80166c:	1000021e 	bne	r2,zero,801678 <tick+0xaf8>
  801670:	00800044 	movi	r2,1
  801674:	00000106 	br	80167c <tick+0xafc>
  801678:	0005883a 	mov	r2,zero
  80167c:	d0a75945 	stb	r2,-25243(gp)
      g34 = g1;
  801680:	d0a763c3 	ldbu	r2,-25201(gp)
  801684:	d0a77405 	stb	r2,-25136(gp)
      g36 =(PRE_g35);
  801688:	d0a76d43 	ldbu	r2,-25163(gp)
  80168c:	d0a78745 	stb	r2,-25059(gp)
      _cg36 = Vsense;
  801690:	d0a77903 	ldbu	r2,-25116(gp)
  801694:	d0a7a1c5 	stb	r2,-24953(gp)
      g49 =(g36&&(!(_cg36)));
  801698:	d0a78743 	ldbu	r2,-25059(gp)
  80169c:	10803fcc 	andi	r2,r2,255
  8016a0:	1080201c 	xori	r2,r2,128
  8016a4:	10bfe004 	addi	r2,r2,-128
  8016a8:	10000726 	beq	r2,zero,8016c8 <tick+0xb48>
  8016ac:	d0a7a1c3 	ldbu	r2,-24953(gp)
  8016b0:	10803fcc 	andi	r2,r2,255
  8016b4:	1080201c 	xori	r2,r2,128
  8016b8:	10bfe004 	addi	r2,r2,-128
  8016bc:	1000021e 	bne	r2,zero,8016c8 <tick+0xb48>
  8016c0:	00800044 	movi	r2,1
  8016c4:	00000106 	br	8016cc <tick+0xb4c>
  8016c8:	0005883a 	mov	r2,zero
  8016cc:	d0a77545 	stb	r2,-25131(gp)
      _cg49 = Vpace;
  8016d0:	d0a76383 	ldbu	r2,-25202(gp)
  8016d4:	d0a79e05 	stb	r2,-24968(gp)
      g41 =(PRE_g40);
  8016d8:	d0a76a43 	ldbu	r2,-25175(gp)
  8016dc:	d0a76985 	stb	r2,-25178(gp)
      _cg41 = Vsense;
  8016e0:	d0a77903 	ldbu	r2,-25116(gp)
  8016e4:	d0a78b85 	stb	r2,-25042(gp)
      g43 =(g41&&(!(_cg41)));
  8016e8:	d0a76983 	ldbu	r2,-25178(gp)
  8016ec:	10803fcc 	andi	r2,r2,255
  8016f0:	1080201c 	xori	r2,r2,128
  8016f4:	10bfe004 	addi	r2,r2,-128
  8016f8:	10000726 	beq	r2,zero,801718 <tick+0xb98>
  8016fc:	d0a78b83 	ldbu	r2,-25042(gp)
  801700:	10803fcc 	andi	r2,r2,255
  801704:	1080201c 	xori	r2,r2,128
  801708:	10bfe004 	addi	r2,r2,-128
  80170c:	1000021e 	bne	r2,zero,801718 <tick+0xb98>
  801710:	00800044 	movi	r2,1
  801714:	00000106 	br	80171c <tick+0xb9c>
  801718:	0005883a 	mov	r2,zero
  80171c:	d0a78685 	stb	r2,-25062(gp)
      _cg43 = Vpace;
  801720:	d0a76383 	ldbu	r2,-25202(gp)
  801724:	d0a770c5 	stb	r2,-25149(gp)
      g44 =(g43&&(!(_cg43)));
  801728:	d0a78683 	ldbu	r2,-25062(gp)
  80172c:	10803fcc 	andi	r2,r2,255
  801730:	1080201c 	xori	r2,r2,128
  801734:	10bfe004 	addi	r2,r2,-128
  801738:	10000726 	beq	r2,zero,801758 <tick+0xbd8>
  80173c:	d0a770c3 	ldbu	r2,-25149(gp)
  801740:	10803fcc 	andi	r2,r2,255
  801744:	1080201c 	xori	r2,r2,128
  801748:	10bfe004 	addi	r2,r2,-128
  80174c:	1000021e 	bne	r2,zero,801758 <tick+0xbd8>
  801750:	00800044 	movi	r2,1
  801754:	00000106 	br	80175c <tick+0xbdc>
  801758:	0005883a 	mov	r2,zero
  80175c:	d0a761c5 	stb	r2,-25209(gp)
      _cg44 = PVARP_ex;
  801760:	d0a79103 	ldbu	r2,-25020(gp)
  801764:	d0a77ac5 	stb	r2,-25109(gp)
      g35 =((g49&&(!(_cg49)))||g34||(g44&&_cg44));
  801768:	d0a77543 	ldbu	r2,-25131(gp)
  80176c:	10803fcc 	andi	r2,r2,255
  801770:	1080201c 	xori	r2,r2,128
  801774:	10bfe004 	addi	r2,r2,-128
  801778:	10000526 	beq	r2,zero,801790 <tick+0xc10>
  80177c:	d0a79e03 	ldbu	r2,-24968(gp)
  801780:	10803fcc 	andi	r2,r2,255
  801784:	1080201c 	xori	r2,r2,128
  801788:	10bfe004 	addi	r2,r2,-128
  80178c:	10000f26 	beq	r2,zero,8017cc <tick+0xc4c>
  801790:	d0a77403 	ldbu	r2,-25136(gp)
  801794:	10803fcc 	andi	r2,r2,255
  801798:	1080201c 	xori	r2,r2,128
  80179c:	10bfe004 	addi	r2,r2,-128
  8017a0:	10000a1e 	bne	r2,zero,8017cc <tick+0xc4c>
  8017a4:	d0a761c3 	ldbu	r2,-25209(gp)
  8017a8:	10803fcc 	andi	r2,r2,255
  8017ac:	1080201c 	xori	r2,r2,128
  8017b0:	10bfe004 	addi	r2,r2,-128
  8017b4:	10000726 	beq	r2,zero,8017d4 <tick+0xc54>
  8017b8:	d0a77ac3 	ldbu	r2,-25109(gp)
  8017bc:	10803fcc 	andi	r2,r2,255
  8017c0:	1080201c 	xori	r2,r2,128
  8017c4:	10bfe004 	addi	r2,r2,-128
  8017c8:	10000226 	beq	r2,zero,8017d4 <tick+0xc54>
  8017cc:	00800044 	movi	r2,1
  8017d0:	00000106 	br	8017d8 <tick+0xc58>
  8017d4:	0005883a 	mov	r2,zero
  8017d8:	d0a78205 	stb	r2,-25080(gp)
      g42 =((g43&&_cg43)||(g41&&_cg41));
  8017dc:	d0a78683 	ldbu	r2,-25062(gp)
  8017e0:	10803fcc 	andi	r2,r2,255
  8017e4:	1080201c 	xori	r2,r2,128
  8017e8:	10bfe004 	addi	r2,r2,-128
  8017ec:	10000526 	beq	r2,zero,801804 <tick+0xc84>
  8017f0:	d0a770c3 	ldbu	r2,-25149(gp)
  8017f4:	10803fcc 	andi	r2,r2,255
  8017f8:	1080201c 	xori	r2,r2,128
  8017fc:	10bfe004 	addi	r2,r2,-128
  801800:	10000a1e 	bne	r2,zero,80182c <tick+0xcac>
  801804:	d0a76983 	ldbu	r2,-25178(gp)
  801808:	10803fcc 	andi	r2,r2,255
  80180c:	1080201c 	xori	r2,r2,128
  801810:	10bfe004 	addi	r2,r2,-128
  801814:	10000726 	beq	r2,zero,801834 <tick+0xcb4>
  801818:	d0a78b83 	ldbu	r2,-25042(gp)
  80181c:	10803fcc 	andi	r2,r2,255
  801820:	1080201c 	xori	r2,r2,128
  801824:	10bfe004 	addi	r2,r2,-128
  801828:	10000226 	beq	r2,zero,801834 <tick+0xcb4>
  80182c:	00800044 	movi	r2,1
  801830:	00000106 	br	801838 <tick+0xcb8>
  801834:	0005883a 	mov	r2,zero
  801838:	d0a75c45 	stb	r2,-25231(gp)
      if(g42){
  80183c:	d0a75c43 	ldbu	r2,-25231(gp)
  801840:	10803fcc 	andi	r2,r2,255
  801844:	1080201c 	xori	r2,r2,128
  801848:	10bfe004 	addi	r2,r2,-128
  80184c:	10000226 	beq	r2,zero,801858 <tick+0xcd8>
         stop_PVARP =(stop_PVARP||1);
  801850:	00800044 	movi	r2,1
  801854:	d0a794c5 	stb	r2,-25005(gp)
      }
      g37 =((g49&&_cg49)||(g36&&_cg36)||g42);
  801858:	d0a77543 	ldbu	r2,-25131(gp)
  80185c:	10803fcc 	andi	r2,r2,255
  801860:	1080201c 	xori	r2,r2,128
  801864:	10bfe004 	addi	r2,r2,-128
  801868:	10000526 	beq	r2,zero,801880 <tick+0xd00>
  80186c:	d0a79e03 	ldbu	r2,-24968(gp)
  801870:	10803fcc 	andi	r2,r2,255
  801874:	1080201c 	xori	r2,r2,128
  801878:	10bfe004 	addi	r2,r2,-128
  80187c:	10000f1e 	bne	r2,zero,8018bc <tick+0xd3c>
  801880:	d0a78743 	ldbu	r2,-25059(gp)
  801884:	10803fcc 	andi	r2,r2,255
  801888:	1080201c 	xori	r2,r2,128
  80188c:	10bfe004 	addi	r2,r2,-128
  801890:	10000526 	beq	r2,zero,8018a8 <tick+0xd28>
  801894:	d0a7a1c3 	ldbu	r2,-24953(gp)
  801898:	10803fcc 	andi	r2,r2,255
  80189c:	1080201c 	xori	r2,r2,128
  8018a0:	10bfe004 	addi	r2,r2,-128
  8018a4:	1000051e 	bne	r2,zero,8018bc <tick+0xd3c>
  8018a8:	d0a75c43 	ldbu	r2,-25231(gp)
  8018ac:	10803fcc 	andi	r2,r2,255
  8018b0:	1080201c 	xori	r2,r2,128
  8018b4:	10bfe004 	addi	r2,r2,-128
  8018b8:	10000226 	beq	r2,zero,8018c4 <tick+0xd44>
  8018bc:	00800044 	movi	r2,1
  8018c0:	00000106 	br	8018c8 <tick+0xd48>
  8018c4:	0005883a 	mov	r2,zero
  8018c8:	d0a76845 	stb	r2,-25183(gp)
      if(g37){
  8018cc:	d0a76843 	ldbu	r2,-25183(gp)
  8018d0:	10803fcc 	andi	r2,r2,255
  8018d4:	1080201c 	xori	r2,r2,128
  8018d8:	10bfe004 	addi	r2,r2,-128
  8018dc:	10000226 	beq	r2,zero,8018e8 <tick+0xd68>
         start_PVARP =(start_PVARP||1);
  8018e0:	00800044 	movi	r2,1
  8018e4:	d0a78345 	stb	r2,-25075(gp)
      }
      g39 =(PRE_g38);
  8018e8:	d0a75783 	ldbu	r2,-25250(gp)
  8018ec:	d0a79dc5 	stb	r2,-24969(gp)
      _cg39 = VRP_ex;
  8018f0:	d0a77d83 	ldbu	r2,-25098(gp)
  8018f4:	d0a7a345 	stb	r2,-24947(gp)
      g47 =(g39&&(!(_cg39)));
  8018f8:	d0a79dc3 	ldbu	r2,-24969(gp)
  8018fc:	10803fcc 	andi	r2,r2,255
  801900:	1080201c 	xori	r2,r2,128
  801904:	10bfe004 	addi	r2,r2,-128
  801908:	10000726 	beq	r2,zero,801928 <tick+0xda8>
  80190c:	d0a7a343 	ldbu	r2,-24947(gp)
  801910:	10803fcc 	andi	r2,r2,255
  801914:	1080201c 	xori	r2,r2,128
  801918:	10bfe004 	addi	r2,r2,-128
  80191c:	1000021e 	bne	r2,zero,801928 <tick+0xda8>
  801920:	00800044 	movi	r2,1
  801924:	00000106 	br	80192c <tick+0xdac>
  801928:	0005883a 	mov	r2,zero
  80192c:	d0a75bc5 	stb	r2,-25233(gp)
      _cg47 = Asense;
  801930:	d0a792c3 	ldbu	r2,-25013(gp)
  801934:	d0a78f05 	stb	r2,-25028(gp)
      g48 =(g47&&_cg47);
  801938:	d0a75bc3 	ldbu	r2,-25233(gp)
  80193c:	10803fcc 	andi	r2,r2,255
  801940:	1080201c 	xori	r2,r2,128
  801944:	10bfe004 	addi	r2,r2,-128
  801948:	10000726 	beq	r2,zero,801968 <tick+0xde8>
  80194c:	d0a78f03 	ldbu	r2,-25028(gp)
  801950:	10803fcc 	andi	r2,r2,255
  801954:	1080201c 	xori	r2,r2,128
  801958:	10bfe004 	addi	r2,r2,-128
  80195c:	10000226 	beq	r2,zero,801968 <tick+0xde8>
  801960:	00800044 	movi	r2,1
  801964:	00000106 	br	80196c <tick+0xdec>
  801968:	0005883a 	mov	r2,zero
  80196c:	d0a76cc5 	stb	r2,-25165(gp)
      if(g48){
  801970:	d0a76cc3 	ldbu	r2,-25165(gp)
  801974:	10803fcc 	andi	r2,r2,255
  801978:	1080201c 	xori	r2,r2,128
  80197c:	10bfe004 	addi	r2,r2,-128
  801980:	10000226 	beq	r2,zero,80198c <tick+0xe0c>
         AR =(AR||1);
  801984:	00800044 	movi	r2,1
  801988:	d0a78e85 	stb	r2,-25030(gp)
      }
      g38 =(g48||g37||(g47&&(!(_cg47))));
  80198c:	d0a76cc3 	ldbu	r2,-25165(gp)
  801990:	10803fcc 	andi	r2,r2,255
  801994:	1080201c 	xori	r2,r2,128
  801998:	10bfe004 	addi	r2,r2,-128
  80199c:	10000f1e 	bne	r2,zero,8019dc <tick+0xe5c>
  8019a0:	d0a76843 	ldbu	r2,-25183(gp)
  8019a4:	10803fcc 	andi	r2,r2,255
  8019a8:	1080201c 	xori	r2,r2,128
  8019ac:	10bfe004 	addi	r2,r2,-128
  8019b0:	10000a1e 	bne	r2,zero,8019dc <tick+0xe5c>
  8019b4:	d0a75bc3 	ldbu	r2,-25233(gp)
  8019b8:	10803fcc 	andi	r2,r2,255
  8019bc:	1080201c 	xori	r2,r2,128
  8019c0:	10bfe004 	addi	r2,r2,-128
  8019c4:	10000726 	beq	r2,zero,8019e4 <tick+0xe64>
  8019c8:	d0a78f03 	ldbu	r2,-25028(gp)
  8019cc:	10803fcc 	andi	r2,r2,255
  8019d0:	1080201c 	xori	r2,r2,128
  8019d4:	10bfe004 	addi	r2,r2,-128
  8019d8:	1000021e 	bne	r2,zero,8019e4 <tick+0xe64>
  8019dc:	00800044 	movi	r2,1
  8019e0:	00000106 	br	8019e8 <tick+0xe68>
  8019e4:	0005883a 	mov	r2,zero
  8019e8:	d0a76e45 	stb	r2,-25159(gp)
      g45 =(g44&&(!(_cg44)));
  8019ec:	d0a761c3 	ldbu	r2,-25209(gp)
  8019f0:	10803fcc 	andi	r2,r2,255
  8019f4:	1080201c 	xori	r2,r2,128
  8019f8:	10bfe004 	addi	r2,r2,-128
  8019fc:	10000726 	beq	r2,zero,801a1c <tick+0xe9c>
  801a00:	d0a77ac3 	ldbu	r2,-25109(gp)
  801a04:	10803fcc 	andi	r2,r2,255
  801a08:	1080201c 	xori	r2,r2,128
  801a0c:	10bfe004 	addi	r2,r2,-128
  801a10:	1000021e 	bne	r2,zero,801a1c <tick+0xe9c>
  801a14:	00800044 	movi	r2,1
  801a18:	00000106 	br	801a20 <tick+0xea0>
  801a1c:	0005883a 	mov	r2,zero
  801a20:	d0a79b05 	stb	r2,-24980(gp)
      _cg45 = Asense;
  801a24:	d0a792c3 	ldbu	r2,-25013(gp)
  801a28:	d0a762c5 	stb	r2,-25205(gp)
      g46 =(g45&&_cg45);
  801a2c:	d0a79b03 	ldbu	r2,-24980(gp)
  801a30:	10803fcc 	andi	r2,r2,255
  801a34:	1080201c 	xori	r2,r2,128
  801a38:	10bfe004 	addi	r2,r2,-128
  801a3c:	10000726 	beq	r2,zero,801a5c <tick+0xedc>
  801a40:	d0a762c3 	ldbu	r2,-25205(gp)
  801a44:	10803fcc 	andi	r2,r2,255
  801a48:	1080201c 	xori	r2,r2,128
  801a4c:	10bfe004 	addi	r2,r2,-128
  801a50:	10000226 	beq	r2,zero,801a5c <tick+0xedc>
  801a54:	00800044 	movi	r2,1
  801a58:	00000106 	br	801a60 <tick+0xee0>
  801a5c:	0005883a 	mov	r2,zero
  801a60:	d0a787c5 	stb	r2,-25057(gp)
      if(g46){
  801a64:	d0a787c3 	ldbu	r2,-25057(gp)
  801a68:	10803fcc 	andi	r2,r2,255
  801a6c:	1080201c 	xori	r2,r2,128
  801a70:	10bfe004 	addi	r2,r2,-128
  801a74:	10000226 	beq	r2,zero,801a80 <tick+0xf00>
         AR =(AR||1);
  801a78:	00800044 	movi	r2,1
  801a7c:	d0a78e85 	stb	r2,-25030(gp)
      }
      g40 =(g46||(g39&&_cg39)||(g45&&(!(_cg45))));
  801a80:	d0a787c3 	ldbu	r2,-25057(gp)
  801a84:	10803fcc 	andi	r2,r2,255
  801a88:	1080201c 	xori	r2,r2,128
  801a8c:	10bfe004 	addi	r2,r2,-128
  801a90:	1000141e 	bne	r2,zero,801ae4 <tick+0xf64>
  801a94:	d0a79dc3 	ldbu	r2,-24969(gp)
  801a98:	10803fcc 	andi	r2,r2,255
  801a9c:	1080201c 	xori	r2,r2,128
  801aa0:	10bfe004 	addi	r2,r2,-128
  801aa4:	10000526 	beq	r2,zero,801abc <tick+0xf3c>
  801aa8:	d0a7a343 	ldbu	r2,-24947(gp)
  801aac:	10803fcc 	andi	r2,r2,255
  801ab0:	1080201c 	xori	r2,r2,128
  801ab4:	10bfe004 	addi	r2,r2,-128
  801ab8:	10000a1e 	bne	r2,zero,801ae4 <tick+0xf64>
  801abc:	d0a79b03 	ldbu	r2,-24980(gp)
  801ac0:	10803fcc 	andi	r2,r2,255
  801ac4:	1080201c 	xori	r2,r2,128
  801ac8:	10bfe004 	addi	r2,r2,-128
  801acc:	10000726 	beq	r2,zero,801aec <tick+0xf6c>
  801ad0:	d0a762c3 	ldbu	r2,-25205(gp)
  801ad4:	10803fcc 	andi	r2,r2,255
  801ad8:	1080201c 	xori	r2,r2,128
  801adc:	10bfe004 	addi	r2,r2,-128
  801ae0:	1000021e 	bne	r2,zero,801aec <tick+0xf6c>
  801ae4:	00800044 	movi	r2,1
  801ae8:	00000106 	br	801af0 <tick+0xf70>
  801aec:	0005883a 	mov	r2,zero
  801af0:	d0a75545 	stb	r2,-25259(gp)
      g51 = g1;
  801af4:	d0a763c3 	ldbu	r2,-25201(gp)
  801af8:	d0a78a05 	stb	r2,-25048(gp)
      g53 =(PRE_g52);
  801afc:	d0a77e83 	ldbu	r2,-25094(gp)
  801b00:	d0a78d05 	stb	r2,-25036(gp)
      _cg53 = Vsense;
  801b04:	d0a77903 	ldbu	r2,-25116(gp)
  801b08:	d0a77645 	stb	r2,-25127(gp)
      g59 =(g53&&(!(_cg53)));
  801b0c:	d0a78d03 	ldbu	r2,-25036(gp)
  801b10:	10803fcc 	andi	r2,r2,255
  801b14:	1080201c 	xori	r2,r2,128
  801b18:	10bfe004 	addi	r2,r2,-128
  801b1c:	10000726 	beq	r2,zero,801b3c <tick+0xfbc>
  801b20:	d0a77643 	ldbu	r2,-25127(gp)
  801b24:	10803fcc 	andi	r2,r2,255
  801b28:	1080201c 	xori	r2,r2,128
  801b2c:	10bfe004 	addi	r2,r2,-128
  801b30:	1000021e 	bne	r2,zero,801b3c <tick+0xfbc>
  801b34:	00800044 	movi	r2,1
  801b38:	00000106 	br	801b40 <tick+0xfc0>
  801b3c:	0005883a 	mov	r2,zero
  801b40:	d0a77945 	stb	r2,-25115(gp)
      _cg59 = Vpace;
  801b44:	d0a76383 	ldbu	r2,-25202(gp)
  801b48:	d0a75905 	stb	r2,-25244(gp)
      g56 =(PRE_g55);
  801b4c:	d0a77303 	ldbu	r2,-25140(gp)
  801b50:	d0a77e45 	stb	r2,-25095(gp)
      _cg56 = VRP_ex;
  801b54:	d0a77d83 	ldbu	r2,-25098(gp)
  801b58:	d0a79005 	stb	r2,-25024(gp)
      g52 =((g59&&(!(_cg59)))||(g56&&_cg56)||g51);
  801b5c:	d0a77943 	ldbu	r2,-25115(gp)
  801b60:	10803fcc 	andi	r2,r2,255
  801b64:	1080201c 	xori	r2,r2,128
  801b68:	10bfe004 	addi	r2,r2,-128
  801b6c:	10000526 	beq	r2,zero,801b84 <tick+0x1004>
  801b70:	d0a75903 	ldbu	r2,-25244(gp)
  801b74:	10803fcc 	andi	r2,r2,255
  801b78:	1080201c 	xori	r2,r2,128
  801b7c:	10bfe004 	addi	r2,r2,-128
  801b80:	10000f26 	beq	r2,zero,801bc0 <tick+0x1040>
  801b84:	d0a77e43 	ldbu	r2,-25095(gp)
  801b88:	10803fcc 	andi	r2,r2,255
  801b8c:	1080201c 	xori	r2,r2,128
  801b90:	10bfe004 	addi	r2,r2,-128
  801b94:	10000526 	beq	r2,zero,801bac <tick+0x102c>
  801b98:	d0a79003 	ldbu	r2,-25024(gp)
  801b9c:	10803fcc 	andi	r2,r2,255
  801ba0:	1080201c 	xori	r2,r2,128
  801ba4:	10bfe004 	addi	r2,r2,-128
  801ba8:	1000051e 	bne	r2,zero,801bc0 <tick+0x1040>
  801bac:	d0a78a03 	ldbu	r2,-25048(gp)
  801bb0:	10803fcc 	andi	r2,r2,255
  801bb4:	1080201c 	xori	r2,r2,128
  801bb8:	10bfe004 	addi	r2,r2,-128
  801bbc:	10000226 	beq	r2,zero,801bc8 <tick+0x1048>
  801bc0:	00800044 	movi	r2,1
  801bc4:	00000106 	br	801bcc <tick+0x104c>
  801bc8:	0005883a 	mov	r2,zero
  801bcc:	d0a76645 	stb	r2,-25191(gp)
      g54 =((g53&&_cg53)||(g59&&_cg59));
  801bd0:	d0a78d03 	ldbu	r2,-25036(gp)
  801bd4:	10803fcc 	andi	r2,r2,255
  801bd8:	1080201c 	xori	r2,r2,128
  801bdc:	10bfe004 	addi	r2,r2,-128
  801be0:	10000526 	beq	r2,zero,801bf8 <tick+0x1078>
  801be4:	d0a77643 	ldbu	r2,-25127(gp)
  801be8:	10803fcc 	andi	r2,r2,255
  801bec:	1080201c 	xori	r2,r2,128
  801bf0:	10bfe004 	addi	r2,r2,-128
  801bf4:	10000a1e 	bne	r2,zero,801c20 <tick+0x10a0>
  801bf8:	d0a77943 	ldbu	r2,-25115(gp)
  801bfc:	10803fcc 	andi	r2,r2,255
  801c00:	1080201c 	xori	r2,r2,128
  801c04:	10bfe004 	addi	r2,r2,-128
  801c08:	10000726 	beq	r2,zero,801c28 <tick+0x10a8>
  801c0c:	d0a75903 	ldbu	r2,-25244(gp)
  801c10:	10803fcc 	andi	r2,r2,255
  801c14:	1080201c 	xori	r2,r2,128
  801c18:	10bfe004 	addi	r2,r2,-128
  801c1c:	10000226 	beq	r2,zero,801c28 <tick+0x10a8>
  801c20:	00800044 	movi	r2,1
  801c24:	00000106 	br	801c2c <tick+0x10ac>
  801c28:	0005883a 	mov	r2,zero
  801c2c:	d0a779c5 	stb	r2,-25113(gp)
      if(g54){
  801c30:	d0a779c3 	ldbu	r2,-25113(gp)
  801c34:	10803fcc 	andi	r2,r2,255
  801c38:	1080201c 	xori	r2,r2,128
  801c3c:	10bfe004 	addi	r2,r2,-128
  801c40:	10000226 	beq	r2,zero,801c4c <tick+0x10cc>
         start_VRP =(start_VRP||1);
  801c44:	00800044 	movi	r2,1
  801c48:	d0a76a85 	stb	r2,-25174(gp)
      }
      g57 =(g56&&(!(_cg56)));
  801c4c:	d0a77e43 	ldbu	r2,-25095(gp)
  801c50:	10803fcc 	andi	r2,r2,255
  801c54:	1080201c 	xori	r2,r2,128
  801c58:	10bfe004 	addi	r2,r2,-128
  801c5c:	10000726 	beq	r2,zero,801c7c <tick+0x10fc>
  801c60:	d0a79003 	ldbu	r2,-25024(gp)
  801c64:	10803fcc 	andi	r2,r2,255
  801c68:	1080201c 	xori	r2,r2,128
  801c6c:	10bfe004 	addi	r2,r2,-128
  801c70:	1000021e 	bne	r2,zero,801c7c <tick+0x10fc>
  801c74:	00800044 	movi	r2,1
  801c78:	00000106 	br	801c80 <tick+0x1100>
  801c7c:	0005883a 	mov	r2,zero
  801c80:	d0a78d85 	stb	r2,-25034(gp)
      _cg57 = Vsense;
  801c84:	d0a77903 	ldbu	r2,-25116(gp)
  801c88:	d0a79605 	stb	r2,-25000(gp)
      g58 =(g57&&_cg57);
  801c8c:	d0a78d83 	ldbu	r2,-25034(gp)
  801c90:	10803fcc 	andi	r2,r2,255
  801c94:	1080201c 	xori	r2,r2,128
  801c98:	10bfe004 	addi	r2,r2,-128
  801c9c:	10000726 	beq	r2,zero,801cbc <tick+0x113c>
  801ca0:	d0a79603 	ldbu	r2,-25000(gp)
  801ca4:	10803fcc 	andi	r2,r2,255
  801ca8:	1080201c 	xori	r2,r2,128
  801cac:	10bfe004 	addi	r2,r2,-128
  801cb0:	10000226 	beq	r2,zero,801cbc <tick+0x113c>
  801cb4:	00800044 	movi	r2,1
  801cb8:	00000106 	br	801cc0 <tick+0x1140>
  801cbc:	0005883a 	mov	r2,zero
  801cc0:	d0a795c5 	stb	r2,-25001(gp)
      if(g58){
  801cc4:	d0a795c3 	ldbu	r2,-25001(gp)
  801cc8:	10803fcc 	andi	r2,r2,255
  801ccc:	1080201c 	xori	r2,r2,128
  801cd0:	10bfe004 	addi	r2,r2,-128
  801cd4:	10000226 	beq	r2,zero,801ce0 <tick+0x1160>
         VR =(VR||1);
  801cd8:	00800044 	movi	r2,1
  801cdc:	d0a76d85 	stb	r2,-25162(gp)
      }
      g55 =(g58||(g57&&(!(_cg57)))||g54);
  801ce0:	d0a795c3 	ldbu	r2,-25001(gp)
  801ce4:	10803fcc 	andi	r2,r2,255
  801ce8:	1080201c 	xori	r2,r2,128
  801cec:	10bfe004 	addi	r2,r2,-128
  801cf0:	10000f1e 	bne	r2,zero,801d30 <tick+0x11b0>
  801cf4:	d0a78d83 	ldbu	r2,-25034(gp)
  801cf8:	10803fcc 	andi	r2,r2,255
  801cfc:	1080201c 	xori	r2,r2,128
  801d00:	10bfe004 	addi	r2,r2,-128
  801d04:	10000526 	beq	r2,zero,801d1c <tick+0x119c>
  801d08:	d0a79603 	ldbu	r2,-25000(gp)
  801d0c:	10803fcc 	andi	r2,r2,255
  801d10:	1080201c 	xori	r2,r2,128
  801d14:	10bfe004 	addi	r2,r2,-128
  801d18:	10000526 	beq	r2,zero,801d30 <tick+0x11b0>
  801d1c:	d0a779c3 	ldbu	r2,-25113(gp)
  801d20:	10803fcc 	andi	r2,r2,255
  801d24:	1080201c 	xori	r2,r2,128
  801d28:	10bfe004 	addi	r2,r2,-128
  801d2c:	10000226 	beq	r2,zero,801d38 <tick+0x11b8>
  801d30:	00800044 	movi	r2,1
  801d34:	00000106 	br	801d3c <tick+0x11bc>
  801d38:	0005883a 	mov	r2,zero
  801d3c:	d0a75885 	stb	r2,-25246(gp)
      g61 = g1;
  801d40:	d0a763c3 	ldbu	r2,-25201(gp)
  801d44:	d0a76405 	stb	r2,-25200(gp)
      g63 =(PRE_g62);
  801d48:	d0a78703 	ldbu	r2,-25060(gp)
  801d4c:	d0a783c5 	stb	r2,-25073(gp)
      _cg63 = Vsense;
  801d50:	d0a77903 	ldbu	r2,-25116(gp)
  801d54:	d0a77185 	stb	r2,-25146(gp)
      g62 =(g61||(g63&&(!(_cg63))));
  801d58:	d0a76403 	ldbu	r2,-25200(gp)
  801d5c:	10803fcc 	andi	r2,r2,255
  801d60:	1080201c 	xori	r2,r2,128
  801d64:	10bfe004 	addi	r2,r2,-128
  801d68:	10000a1e 	bne	r2,zero,801d94 <tick+0x1214>
  801d6c:	d0a783c3 	ldbu	r2,-25073(gp)
  801d70:	10803fcc 	andi	r2,r2,255
  801d74:	1080201c 	xori	r2,r2,128
  801d78:	10bfe004 	addi	r2,r2,-128
  801d7c:	10000726 	beq	r2,zero,801d9c <tick+0x121c>
  801d80:	d0a77183 	ldbu	r2,-25146(gp)
  801d84:	10803fcc 	andi	r2,r2,255
  801d88:	1080201c 	xori	r2,r2,128
  801d8c:	10bfe004 	addi	r2,r2,-128
  801d90:	1000021e 	bne	r2,zero,801d9c <tick+0x121c>
  801d94:	00800044 	movi	r2,1
  801d98:	00000106 	br	801da0 <tick+0x1220>
  801d9c:	0005883a 	mov	r2,zero
  801da0:	d0a768c5 	stb	r2,-25181(gp)
      g64 =(g63&&_cg63);
  801da4:	d0a783c3 	ldbu	r2,-25073(gp)
  801da8:	10803fcc 	andi	r2,r2,255
  801dac:	1080201c 	xori	r2,r2,128
  801db0:	10bfe004 	addi	r2,r2,-128
  801db4:	10000726 	beq	r2,zero,801dd4 <tick+0x1254>
  801db8:	d0a77183 	ldbu	r2,-25146(gp)
  801dbc:	10803fcc 	andi	r2,r2,255
  801dc0:	1080201c 	xori	r2,r2,128
  801dc4:	10bfe004 	addi	r2,r2,-128
  801dc8:	10000226 	beq	r2,zero,801dd4 <tick+0x1254>
  801dcc:	00800044 	movi	r2,1
  801dd0:	00000106 	br	801dd8 <tick+0x1258>
  801dd4:	0005883a 	mov	r2,zero
  801dd8:	d0a77205 	stb	r2,-25144(gp)
      if(g64){
  801ddc:	d0a77203 	ldbu	r2,-25144(gp)
  801de0:	10803fcc 	andi	r2,r2,255
  801de4:	1080201c 	xori	r2,r2,128
  801de8:	10bfe004 	addi	r2,r2,-128
  801dec:	10000226 	beq	r2,zero,801df8 <tick+0x1278>
         start_LRI =(start_LRI||1);
  801df0:	00800044 	movi	r2,1
  801df4:	d0a78a45 	stb	r2,-25047(gp)
      }
      g66 =(PRE_g65);
  801df8:	d0a76303 	ldbu	r2,-25204(gp)
  801dfc:	d0a77a05 	stb	r2,-25112(gp)
      _cg66 = VRP_ex;
  801e00:	d0a77d83 	ldbu	r2,-25098(gp)
  801e04:	d0a78ec5 	stb	r2,-25029(gp)
      g75 =(g66&&(!(_cg66)));
  801e08:	d0a77a03 	ldbu	r2,-25112(gp)
  801e0c:	10803fcc 	andi	r2,r2,255
  801e10:	1080201c 	xori	r2,r2,128
  801e14:	10bfe004 	addi	r2,r2,-128
  801e18:	10000726 	beq	r2,zero,801e38 <tick+0x12b8>
  801e1c:	d0a78ec3 	ldbu	r2,-25029(gp)
  801e20:	10803fcc 	andi	r2,r2,255
  801e24:	1080201c 	xori	r2,r2,128
  801e28:	10bfe004 	addi	r2,r2,-128
  801e2c:	1000021e 	bne	r2,zero,801e38 <tick+0x12b8>
  801e30:	00800044 	movi	r2,1
  801e34:	00000106 	br	801e3c <tick+0x12bc>
  801e38:	0005883a 	mov	r2,zero
  801e3c:	d0a79445 	stb	r2,-25007(gp)
      if(g75){
  801e40:	d0a79443 	ldbu	r2,-25007(gp)
  801e44:	10803fcc 	andi	r2,r2,255
  801e48:	1080201c 	xori	r2,r2,128
  801e4c:	10bfe004 	addi	r2,r2,-128
  801e50:	10000226 	beq	r2,zero,801e5c <tick+0x12dc>
         start_LRI =(start_LRI||1);
  801e54:	00800044 	movi	r2,1
  801e58:	d0a78a45 	stb	r2,-25047(gp)
      }
      g72 =(g71&&_cg71);
  801e5c:	d0a76483 	ldbu	r2,-25198(gp)
  801e60:	10803fcc 	andi	r2,r2,255
  801e64:	1080201c 	xori	r2,r2,128
  801e68:	10bfe004 	addi	r2,r2,-128
  801e6c:	10000726 	beq	r2,zero,801e8c <tick+0x130c>
  801e70:	d0a78243 	ldbu	r2,-25079(gp)
  801e74:	10803fcc 	andi	r2,r2,255
  801e78:	1080201c 	xori	r2,r2,128
  801e7c:	10bfe004 	addi	r2,r2,-128
  801e80:	10000226 	beq	r2,zero,801e8c <tick+0x130c>
  801e84:	00800044 	movi	r2,1
  801e88:	00000106 	br	801e90 <tick+0x1310>
  801e8c:	0005883a 	mov	r2,zero
  801e90:	d0a79085 	stb	r2,-25022(gp)
      if(g72){
  801e94:	d0a79083 	ldbu	r2,-25022(gp)
  801e98:	10803fcc 	andi	r2,r2,255
  801e9c:	1080201c 	xori	r2,r2,128
  801ea0:	10bfe004 	addi	r2,r2,-128
  801ea4:	10000226 	beq	r2,zero,801eb0 <tick+0x1330>
         stop_LRI =(stop_LRI||1);
  801ea8:	00800044 	movi	r2,1
  801eac:	d0a79cc5 	stb	r2,-24973(gp)
      }
      g69 =(g68&&_cg68);
  801eb0:	d0a79643 	ldbu	r2,-24999(gp)
  801eb4:	10803fcc 	andi	r2,r2,255
  801eb8:	1080201c 	xori	r2,r2,128
  801ebc:	10bfe004 	addi	r2,r2,-128
  801ec0:	10000726 	beq	r2,zero,801ee0 <tick+0x1360>
  801ec4:	d0a77383 	ldbu	r2,-25138(gp)
  801ec8:	10803fcc 	andi	r2,r2,255
  801ecc:	1080201c 	xori	r2,r2,128
  801ed0:	10bfe004 	addi	r2,r2,-128
  801ed4:	10000226 	beq	r2,zero,801ee0 <tick+0x1360>
  801ed8:	00800044 	movi	r2,1
  801edc:	00000106 	br	801ee4 <tick+0x1364>
  801ee0:	0005883a 	mov	r2,zero
  801ee4:	d0a7a245 	stb	r2,-24951(gp)
      if(g69){
  801ee8:	d0a7a243 	ldbu	r2,-24951(gp)
  801eec:	10803fcc 	andi	r2,r2,255
  801ef0:	1080201c 	xori	r2,r2,128
  801ef4:	10bfe004 	addi	r2,r2,-128
  801ef8:	10000226 	beq	r2,zero,801f04 <tick+0x1384>
         reset_LRI =(reset_LRI||1);
  801efc:	00800044 	movi	r2,1
  801f00:	d0a76905 	stb	r2,-25180(gp)
      }
      g74b = g74;
  801f04:	d0a7a3c3 	ldbu	r2,-24945(gp)
  801f08:	d0a77285 	stb	r2,-25142(gp)
      if(g74b){
  801f0c:	d0a77283 	ldbu	r2,-25142(gp)
  801f10:	10803fcc 	andi	r2,r2,255
  801f14:	1080201c 	xori	r2,r2,128
  801f18:	10bfe004 	addi	r2,r2,-128
  801f1c:	10000226 	beq	r2,zero,801f28 <tick+0x13a8>
         stop_LRI =(stop_LRI||1);
  801f20:	00800044 	movi	r2,1
  801f24:	d0a79cc5 	stb	r2,-24973(gp)
      }
      g70 =(g72||g69||g74b);
  801f28:	d0a79083 	ldbu	r2,-25022(gp)
  801f2c:	10803fcc 	andi	r2,r2,255
  801f30:	1080201c 	xori	r2,r2,128
  801f34:	10bfe004 	addi	r2,r2,-128
  801f38:	10000a1e 	bne	r2,zero,801f64 <tick+0x13e4>
  801f3c:	d0a7a243 	ldbu	r2,-24951(gp)
  801f40:	10803fcc 	andi	r2,r2,255
  801f44:	1080201c 	xori	r2,r2,128
  801f48:	10bfe004 	addi	r2,r2,-128
  801f4c:	1000051e 	bne	r2,zero,801f64 <tick+0x13e4>
  801f50:	d0a77283 	ldbu	r2,-25142(gp)
  801f54:	10803fcc 	andi	r2,r2,255
  801f58:	1080201c 	xori	r2,r2,128
  801f5c:	10bfe004 	addi	r2,r2,-128
  801f60:	10000226 	beq	r2,zero,801f6c <tick+0x13ec>
  801f64:	00800044 	movi	r2,1
  801f68:	00000106 	br	801f70 <tick+0x13f0>
  801f6c:	0005883a 	mov	r2,zero
  801f70:	d0a78e45 	stb	r2,-25031(gp)
      if(g70){
  801f74:	d0a78e43 	ldbu	r2,-25031(gp)
  801f78:	10803fcc 	andi	r2,r2,255
  801f7c:	1080201c 	xori	r2,r2,128
  801f80:	10bfe004 	addi	r2,r2,-128
  801f84:	10000226 	beq	r2,zero,801f90 <tick+0x1410>
         start_LRI =(start_LRI||1);
  801f88:	00800044 	movi	r2,1
  801f8c:	d0a78a45 	stb	r2,-25047(gp)
      }
      g65 =(g75||g64||g70);
  801f90:	d0a79443 	ldbu	r2,-25007(gp)
  801f94:	10803fcc 	andi	r2,r2,255
  801f98:	1080201c 	xori	r2,r2,128
  801f9c:	10bfe004 	addi	r2,r2,-128
  801fa0:	10000a1e 	bne	r2,zero,801fcc <tick+0x144c>
  801fa4:	d0a77203 	ldbu	r2,-25144(gp)
  801fa8:	10803fcc 	andi	r2,r2,255
  801fac:	1080201c 	xori	r2,r2,128
  801fb0:	10bfe004 	addi	r2,r2,-128
  801fb4:	1000051e 	bne	r2,zero,801fcc <tick+0x144c>
  801fb8:	d0a78e43 	ldbu	r2,-25031(gp)
  801fbc:	10803fcc 	andi	r2,r2,255
  801fc0:	1080201c 	xori	r2,r2,128
  801fc4:	10bfe004 	addi	r2,r2,-128
  801fc8:	10000226 	beq	r2,zero,801fd4 <tick+0x1454>
  801fcc:	00800044 	movi	r2,1
  801fd0:	00000106 	br	801fd8 <tick+0x1458>
  801fd4:	0005883a 	mov	r2,zero
  801fd8:	d0a79785 	stb	r2,-24994(gp)
      g67 =((g66&&_cg66)||(g73&&(!(_cg73))));
  801fdc:	d0a77a03 	ldbu	r2,-25112(gp)
  801fe0:	10803fcc 	andi	r2,r2,255
  801fe4:	1080201c 	xori	r2,r2,128
  801fe8:	10bfe004 	addi	r2,r2,-128
  801fec:	10000526 	beq	r2,zero,802004 <tick+0x1484>
  801ff0:	d0a78ec3 	ldbu	r2,-25029(gp)
  801ff4:	10803fcc 	andi	r2,r2,255
  801ff8:	1080201c 	xori	r2,r2,128
  801ffc:	10bfe004 	addi	r2,r2,-128
  802000:	10000a1e 	bne	r2,zero,80202c <tick+0x14ac>
  802004:	d0a798c3 	ldbu	r2,-24989(gp)
  802008:	10803fcc 	andi	r2,r2,255
  80200c:	1080201c 	xori	r2,r2,128
  802010:	10bfe004 	addi	r2,r2,-128
  802014:	10000726 	beq	r2,zero,802034 <tick+0x14b4>
  802018:	d0a76143 	ldbu	r2,-25211(gp)
  80201c:	10803fcc 	andi	r2,r2,255
  802020:	1080201c 	xori	r2,r2,128
  802024:	10bfe004 	addi	r2,r2,-128
  802028:	1000021e 	bne	r2,zero,802034 <tick+0x14b4>
  80202c:	00800044 	movi	r2,1
  802030:	00000106 	br	802038 <tick+0x14b8>
  802034:	0005883a 	mov	r2,zero
  802038:	d0a79f45 	stb	r2,-24963(gp)
      g77 = g1;
  80203c:	d0a763c3 	ldbu	r2,-25201(gp)
  802040:	d0a79a05 	stb	r2,-24984(gp)
      g79 =(PRE_g78);
  802044:	d0a76d03 	ldbu	r2,-25164(gp)
  802048:	d0a773c5 	stb	r2,-25137(gp)
      _cg79 = Vsense;
  80204c:	d0a77903 	ldbu	r2,-25116(gp)
  802050:	d0a76245 	stb	r2,-25207(gp)
      g101 =(g79&&(!(_cg79)));
  802054:	d0a773c3 	ldbu	r2,-25137(gp)
  802058:	10803fcc 	andi	r2,r2,255
  80205c:	1080201c 	xori	r2,r2,128
  802060:	10bfe004 	addi	r2,r2,-128
  802064:	10000726 	beq	r2,zero,802084 <tick+0x1504>
  802068:	d0a76243 	ldbu	r2,-25207(gp)
  80206c:	10803fcc 	andi	r2,r2,255
  802070:	1080201c 	xori	r2,r2,128
  802074:	10bfe004 	addi	r2,r2,-128
  802078:	1000021e 	bne	r2,zero,802084 <tick+0x1504>
  80207c:	00800044 	movi	r2,1
  802080:	00000106 	br	802088 <tick+0x1508>
  802084:	0005883a 	mov	r2,zero
  802088:	d0a77d45 	stb	r2,-25099(gp)
      _cg101 = Vpace;
  80208c:	d0a76383 	ldbu	r2,-25202(gp)
  802090:	d0a76c05 	stb	r2,-25168(gp)
      g78 =(g77||(g101&&(!(_cg101))));
  802094:	d0a79a03 	ldbu	r2,-24984(gp)
  802098:	10803fcc 	andi	r2,r2,255
  80209c:	1080201c 	xori	r2,r2,128
  8020a0:	10bfe004 	addi	r2,r2,-128
  8020a4:	10000a1e 	bne	r2,zero,8020d0 <tick+0x1550>
  8020a8:	d0a77d43 	ldbu	r2,-25099(gp)
  8020ac:	10803fcc 	andi	r2,r2,255
  8020b0:	1080201c 	xori	r2,r2,128
  8020b4:	10bfe004 	addi	r2,r2,-128
  8020b8:	10000726 	beq	r2,zero,8020d8 <tick+0x1558>
  8020bc:	d0a76c03 	ldbu	r2,-25168(gp)
  8020c0:	10803fcc 	andi	r2,r2,255
  8020c4:	1080201c 	xori	r2,r2,128
  8020c8:	10bfe004 	addi	r2,r2,-128
  8020cc:	1000021e 	bne	r2,zero,8020d8 <tick+0x1558>
  8020d0:	00800044 	movi	r2,1
  8020d4:	00000106 	br	8020dc <tick+0x155c>
  8020d8:	0005883a 	mov	r2,zero
  8020dc:	d0a77f45 	stb	r2,-25091(gp)
      g95 =(g90&&(!(_cg90)));
  8020e0:	d0a782c3 	ldbu	r2,-25077(gp)
  8020e4:	10803fcc 	andi	r2,r2,255
  8020e8:	1080201c 	xori	r2,r2,128
  8020ec:	10bfe004 	addi	r2,r2,-128
  8020f0:	10000726 	beq	r2,zero,802110 <tick+0x1590>
  8020f4:	d0a77603 	ldbu	r2,-25128(gp)
  8020f8:	10803fcc 	andi	r2,r2,255
  8020fc:	1080201c 	xori	r2,r2,128
  802100:	10bfe004 	addi	r2,r2,-128
  802104:	1000021e 	bne	r2,zero,802110 <tick+0x1590>
  802108:	00800044 	movi	r2,1
  80210c:	00000106 	br	802114 <tick+0x1594>
  802110:	0005883a 	mov	r2,zero
  802114:	d0a78905 	stb	r2,-25052(gp)
      _cg95 = Vsense;
  802118:	d0a77903 	ldbu	r2,-25116(gp)
  80211c:	d0a76dc5 	stb	r2,-25161(gp)
      g96 =(g95&&_cg95);
  802120:	d0a78903 	ldbu	r2,-25052(gp)
  802124:	10803fcc 	andi	r2,r2,255
  802128:	1080201c 	xori	r2,r2,128
  80212c:	10bfe004 	addi	r2,r2,-128
  802130:	10000726 	beq	r2,zero,802150 <tick+0x15d0>
  802134:	d0a76dc3 	ldbu	r2,-25161(gp)
  802138:	10803fcc 	andi	r2,r2,255
  80213c:	1080201c 	xori	r2,r2,128
  802140:	10bfe004 	addi	r2,r2,-128
  802144:	10000226 	beq	r2,zero,802150 <tick+0x15d0>
  802148:	00800044 	movi	r2,1
  80214c:	00000106 	br	802154 <tick+0x15d4>
  802150:	0005883a 	mov	r2,zero
  802154:	d0a789c5 	stb	r2,-25049(gp)
      if(g96){
  802158:	d0a789c3 	ldbu	r2,-25049(gp)
  80215c:	10803fcc 	andi	r2,r2,255
  802160:	1080201c 	xori	r2,r2,128
  802164:	10bfe004 	addi	r2,r2,-128
  802168:	10000226 	beq	r2,zero,802174 <tick+0x15f4>
         stop_URI =(stop_URI||1);
  80216c:	00800044 	movi	r2,1
  802170:	d0a78145 	stb	r2,-25083(gp)
      }
      g80 =((g79&&_cg79)||g96||(g101&&_cg101));
  802174:	d0a773c3 	ldbu	r2,-25137(gp)
  802178:	10803fcc 	andi	r2,r2,255
  80217c:	1080201c 	xori	r2,r2,128
  802180:	10bfe004 	addi	r2,r2,-128
  802184:	10000526 	beq	r2,zero,80219c <tick+0x161c>
  802188:	d0a76243 	ldbu	r2,-25207(gp)
  80218c:	10803fcc 	andi	r2,r2,255
  802190:	1080201c 	xori	r2,r2,128
  802194:	10bfe004 	addi	r2,r2,-128
  802198:	10000f1e 	bne	r2,zero,8021d8 <tick+0x1658>
  80219c:	d0a789c3 	ldbu	r2,-25049(gp)
  8021a0:	10803fcc 	andi	r2,r2,255
  8021a4:	1080201c 	xori	r2,r2,128
  8021a8:	10bfe004 	addi	r2,r2,-128
  8021ac:	10000a1e 	bne	r2,zero,8021d8 <tick+0x1658>
  8021b0:	d0a77d43 	ldbu	r2,-25099(gp)
  8021b4:	10803fcc 	andi	r2,r2,255
  8021b8:	1080201c 	xori	r2,r2,128
  8021bc:	10bfe004 	addi	r2,r2,-128
  8021c0:	10000726 	beq	r2,zero,8021e0 <tick+0x1660>
  8021c4:	d0a76c03 	ldbu	r2,-25168(gp)
  8021c8:	10803fcc 	andi	r2,r2,255
  8021cc:	1080201c 	xori	r2,r2,128
  8021d0:	10bfe004 	addi	r2,r2,-128
  8021d4:	10000226 	beq	r2,zero,8021e0 <tick+0x1660>
  8021d8:	00800044 	movi	r2,1
  8021dc:	00000106 	br	8021e4 <tick+0x1664>
  8021e0:	0005883a 	mov	r2,zero
  8021e4:	d0a77705 	stb	r2,-25124(gp)
      if(g80){
  8021e8:	d0a77703 	ldbu	r2,-25124(gp)
  8021ec:	10803fcc 	andi	r2,r2,255
  8021f0:	1080201c 	xori	r2,r2,128
  8021f4:	10bfe004 	addi	r2,r2,-128
  8021f8:	10000226 	beq	r2,zero,802204 <tick+0x1684>
         start_URI =(start_URI||1);
  8021fc:	00800044 	movi	r2,1
  802200:	d0a78e05 	stb	r2,-25032(gp)
      }
      g97 =(g95&&(!(_cg95)));
  802204:	d0a78903 	ldbu	r2,-25052(gp)
  802208:	10803fcc 	andi	r2,r2,255
  80220c:	1080201c 	xori	r2,r2,128
  802210:	10bfe004 	addi	r2,r2,-128
  802214:	10000726 	beq	r2,zero,802234 <tick+0x16b4>
  802218:	d0a76dc3 	ldbu	r2,-25161(gp)
  80221c:	10803fcc 	andi	r2,r2,255
  802220:	1080201c 	xori	r2,r2,128
  802224:	10bfe004 	addi	r2,r2,-128
  802228:	1000021e 	bne	r2,zero,802234 <tick+0x16b4>
  80222c:	00800044 	movi	r2,1
  802230:	00000106 	br	802238 <tick+0x16b8>
  802234:	0005883a 	mov	r2,zero
  802238:	d0a76605 	stb	r2,-25192(gp)
      _cg97 = URI_ex;
  80223c:	d0a78043 	ldbu	r2,-25087(gp)
  802240:	d0a76f05 	stb	r2,-25156(gp)
      g98 =(g97&&(!(_cg97)));
  802244:	d0a76603 	ldbu	r2,-25192(gp)
  802248:	10803fcc 	andi	r2,r2,255
  80224c:	1080201c 	xori	r2,r2,128
  802250:	10bfe004 	addi	r2,r2,-128
  802254:	10000726 	beq	r2,zero,802274 <tick+0x16f4>
  802258:	d0a76f03 	ldbu	r2,-25156(gp)
  80225c:	10803fcc 	andi	r2,r2,255
  802260:	1080201c 	xori	r2,r2,128
  802264:	10bfe004 	addi	r2,r2,-128
  802268:	1000021e 	bne	r2,zero,802274 <tick+0x16f4>
  80226c:	00800044 	movi	r2,1
  802270:	00000106 	br	802278 <tick+0x16f8>
  802274:	0005883a 	mov	r2,zero
  802278:	d0a78cc5 	stb	r2,-25037(gp)
      _cg98 = Vpace;
  80227c:	d0a76383 	ldbu	r2,-25202(gp)
  802280:	d0a76585 	stb	r2,-25194(gp)
      g99 =(g98&&_cg98);
  802284:	d0a78cc3 	ldbu	r2,-25037(gp)
  802288:	10803fcc 	andi	r2,r2,255
  80228c:	1080201c 	xori	r2,r2,128
  802290:	10bfe004 	addi	r2,r2,-128
  802294:	10000726 	beq	r2,zero,8022b4 <tick+0x1734>
  802298:	d0a76583 	ldbu	r2,-25194(gp)
  80229c:	10803fcc 	andi	r2,r2,255
  8022a0:	1080201c 	xori	r2,r2,128
  8022a4:	10bfe004 	addi	r2,r2,-128
  8022a8:	10000226 	beq	r2,zero,8022b4 <tick+0x1734>
  8022ac:	00800044 	movi	r2,1
  8022b0:	00000106 	br	8022b8 <tick+0x1738>
  8022b4:	0005883a 	mov	r2,zero
  8022b8:	d0a77985 	stb	r2,-25114(gp)
      if(g99){
  8022bc:	d0a77983 	ldbu	r2,-25114(gp)
  8022c0:	10803fcc 	andi	r2,r2,255
  8022c4:	1080201c 	xori	r2,r2,128
  8022c8:	10bfe004 	addi	r2,r2,-128
  8022cc:	10000226 	beq	r2,zero,8022d8 <tick+0x1758>
         stop_URI =(stop_URI||1);
  8022d0:	00800044 	movi	r2,1
  8022d4:	d0a78145 	stb	r2,-25083(gp)
      }
      g99b = g99;
  8022d8:	d0a77983 	ldbu	r2,-25114(gp)
  8022dc:	d0a79945 	stb	r2,-24987(gp)
      if(g99b){
  8022e0:	d0a79943 	ldbu	r2,-24987(gp)
  8022e4:	10803fcc 	andi	r2,r2,255
  8022e8:	1080201c 	xori	r2,r2,128
  8022ec:	10bfe004 	addi	r2,r2,-128
  8022f0:	10000226 	beq	r2,zero,8022fc <tick+0x177c>
         start_URI =(start_URI||1);
  8022f4:	00800044 	movi	r2,1
  8022f8:	d0a78e05 	stb	r2,-25032(gp)
      }
      g85 =(PRE_g84);
  8022fc:	d0a77bc3 	ldbu	r2,-25105(gp)
  802300:	d0a75c05 	stb	r2,-25232(gp)
      g85b = g85;
  802304:	d0a75c03 	ldbu	r2,-25232(gp)
  802308:	d0a77045 	stb	r2,-25151(gp)
      _cg85 = Vpace;
  80230c:	d0a76383 	ldbu	r2,-25202(gp)
  802310:	d0a76705 	stb	r2,-25188(gp)
      g86 =(g85b&&_cg85);
  802314:	d0a77043 	ldbu	r2,-25151(gp)
  802318:	10803fcc 	andi	r2,r2,255
  80231c:	1080201c 	xori	r2,r2,128
  802320:	10bfe004 	addi	r2,r2,-128
  802324:	10000726 	beq	r2,zero,802344 <tick+0x17c4>
  802328:	d0a76703 	ldbu	r2,-25188(gp)
  80232c:	10803fcc 	andi	r2,r2,255
  802330:	1080201c 	xori	r2,r2,128
  802334:	10bfe004 	addi	r2,r2,-128
  802338:	10000226 	beq	r2,zero,802344 <tick+0x17c4>
  80233c:	00800044 	movi	r2,1
  802340:	00000106 	br	802348 <tick+0x17c8>
  802344:	0005883a 	mov	r2,zero
  802348:	d0a78645 	stb	r2,-25063(gp)
      if(g86){
  80234c:	d0a78643 	ldbu	r2,-25063(gp)
  802350:	10803fcc 	andi	r2,r2,255
  802354:	1080201c 	xori	r2,r2,128
  802358:	10bfe004 	addi	r2,r2,-128
  80235c:	10000226 	beq	r2,zero,802368 <tick+0x17e8>
         start_URI =(start_URI||1);
  802360:	00800044 	movi	r2,1
  802364:	d0a78e05 	stb	r2,-25032(gp)
      }
      g87 =(g85b&&(!(_cg85)));
  802368:	d0a77043 	ldbu	r2,-25151(gp)
  80236c:	10803fcc 	andi	r2,r2,255
  802370:	1080201c 	xori	r2,r2,128
  802374:	10bfe004 	addi	r2,r2,-128
  802378:	10000726 	beq	r2,zero,802398 <tick+0x1818>
  80237c:	d0a76703 	ldbu	r2,-25188(gp)
  802380:	10803fcc 	andi	r2,r2,255
  802384:	1080201c 	xori	r2,r2,128
  802388:	10bfe004 	addi	r2,r2,-128
  80238c:	1000021e 	bne	r2,zero,802398 <tick+0x1818>
  802390:	00800044 	movi	r2,1
  802394:	00000106 	br	80239c <tick+0x181c>
  802398:	0005883a 	mov	r2,zero
  80239c:	d0a76185 	stb	r2,-25210(gp)
      _cg87 = Vsense;
  8023a0:	d0a77903 	ldbu	r2,-25116(gp)
  8023a4:	d0a77b05 	stb	r2,-25108(gp)
      g88 =(g87&&_cg87);
  8023a8:	d0a76183 	ldbu	r2,-25210(gp)
  8023ac:	10803fcc 	andi	r2,r2,255
  8023b0:	1080201c 	xori	r2,r2,128
  8023b4:	10bfe004 	addi	r2,r2,-128
  8023b8:	10000726 	beq	r2,zero,8023d8 <tick+0x1858>
  8023bc:	d0a77b03 	ldbu	r2,-25108(gp)
  8023c0:	10803fcc 	andi	r2,r2,255
  8023c4:	1080201c 	xori	r2,r2,128
  8023c8:	10bfe004 	addi	r2,r2,-128
  8023cc:	10000226 	beq	r2,zero,8023d8 <tick+0x1858>
  8023d0:	00800044 	movi	r2,1
  8023d4:	00000106 	br	8023dc <tick+0x185c>
  8023d8:	0005883a 	mov	r2,zero
  8023dc:	d0a79ac5 	stb	r2,-24981(gp)
      if(g88){
  8023e0:	d0a79ac3 	ldbu	r2,-24981(gp)
  8023e4:	10803fcc 	andi	r2,r2,255
  8023e8:	1080201c 	xori	r2,r2,128
  8023ec:	10bfe004 	addi	r2,r2,-128
  8023f0:	10000226 	beq	r2,zero,8023fc <tick+0x187c>
         start_URI =(start_URI||1);
  8023f4:	00800044 	movi	r2,1
  8023f8:	d0a78e05 	stb	r2,-25032(gp)
      }
      g82 =(PRE_g81);
  8023fc:	d0a76b43 	ldbu	r2,-25171(gp)
  802400:	d0a76545 	stb	r2,-25195(gp)
      _cg82 = VRP_ex;
  802404:	d0a77d83 	ldbu	r2,-25098(gp)
  802408:	d0a77085 	stb	r2,-25150(gp)
      g100 =(g82&&(!(_cg82)));
  80240c:	d0a76543 	ldbu	r2,-25195(gp)
  802410:	10803fcc 	andi	r2,r2,255
  802414:	1080201c 	xori	r2,r2,128
  802418:	10bfe004 	addi	r2,r2,-128
  80241c:	10000726 	beq	r2,zero,80243c <tick+0x18bc>
  802420:	d0a77083 	ldbu	r2,-25150(gp)
  802424:	10803fcc 	andi	r2,r2,255
  802428:	1080201c 	xori	r2,r2,128
  80242c:	10bfe004 	addi	r2,r2,-128
  802430:	1000021e 	bne	r2,zero,80243c <tick+0x18bc>
  802434:	00800044 	movi	r2,1
  802438:	00000106 	br	802440 <tick+0x18c0>
  80243c:	0005883a 	mov	r2,zero
  802440:	d0a77885 	stb	r2,-25118(gp)
      if(g100){
  802444:	d0a77883 	ldbu	r2,-25118(gp)
  802448:	10803fcc 	andi	r2,r2,255
  80244c:	1080201c 	xori	r2,r2,128
  802450:	10bfe004 	addi	r2,r2,-128
  802454:	10000226 	beq	r2,zero,802460 <tick+0x18e0>
         start_URI =(start_URI||1);
  802458:	00800044 	movi	r2,1
  80245c:	d0a78e05 	stb	r2,-25032(gp)
      }
      g81 =(g99b||g86||g88||g100||g92||g80);
  802460:	d0a79943 	ldbu	r2,-24987(gp)
  802464:	10803fcc 	andi	r2,r2,255
  802468:	1080201c 	xori	r2,r2,128
  80246c:	10bfe004 	addi	r2,r2,-128
  802470:	1000191e 	bne	r2,zero,8024d8 <tick+0x1958>
  802474:	d0a78643 	ldbu	r2,-25063(gp)
  802478:	10803fcc 	andi	r2,r2,255
  80247c:	1080201c 	xori	r2,r2,128
  802480:	10bfe004 	addi	r2,r2,-128
  802484:	1000141e 	bne	r2,zero,8024d8 <tick+0x1958>
  802488:	d0a79ac3 	ldbu	r2,-24981(gp)
  80248c:	10803fcc 	andi	r2,r2,255
  802490:	1080201c 	xori	r2,r2,128
  802494:	10bfe004 	addi	r2,r2,-128
  802498:	10000f1e 	bne	r2,zero,8024d8 <tick+0x1958>
  80249c:	d0a77883 	ldbu	r2,-25118(gp)
  8024a0:	10803fcc 	andi	r2,r2,255
  8024a4:	1080201c 	xori	r2,r2,128
  8024a8:	10bfe004 	addi	r2,r2,-128
  8024ac:	10000a1e 	bne	r2,zero,8024d8 <tick+0x1958>
  8024b0:	d0a76343 	ldbu	r2,-25203(gp)
  8024b4:	10803fcc 	andi	r2,r2,255
  8024b8:	1080201c 	xori	r2,r2,128
  8024bc:	10bfe004 	addi	r2,r2,-128
  8024c0:	1000051e 	bne	r2,zero,8024d8 <tick+0x1958>
  8024c4:	d0a77703 	ldbu	r2,-25124(gp)
  8024c8:	10803fcc 	andi	r2,r2,255
  8024cc:	1080201c 	xori	r2,r2,128
  8024d0:	10bfe004 	addi	r2,r2,-128
  8024d4:	10000226 	beq	r2,zero,8024e0 <tick+0x1960>
  8024d8:	00800044 	movi	r2,1
  8024dc:	00000106 	br	8024e4 <tick+0x1964>
  8024e0:	0005883a 	mov	r2,zero
  8024e4:	d0a790c5 	stb	r2,-25021(gp)
      g83 =(g82&&_cg82);
  8024e8:	d0a76543 	ldbu	r2,-25195(gp)
  8024ec:	10803fcc 	andi	r2,r2,255
  8024f0:	1080201c 	xori	r2,r2,128
  8024f4:	10bfe004 	addi	r2,r2,-128
  8024f8:	10000726 	beq	r2,zero,802518 <tick+0x1998>
  8024fc:	d0a77083 	ldbu	r2,-25150(gp)
  802500:	10803fcc 	andi	r2,r2,255
  802504:	1080201c 	xori	r2,r2,128
  802508:	10bfe004 	addi	r2,r2,-128
  80250c:	10000226 	beq	r2,zero,802518 <tick+0x1998>
  802510:	00800044 	movi	r2,1
  802514:	00000106 	br	80251c <tick+0x199c>
  802518:	0005883a 	mov	r2,zero
  80251c:	d0a75505 	stb	r2,-25260(gp)
      _cg83 = URI_ex;
  802520:	d0a78043 	ldbu	r2,-25087(gp)
  802524:	d0a77a85 	stb	r2,-25110(gp)
      g84 =((g97&&_cg97)||(g87&&(!(_cg87)))||(g83&&_cg83));
  802528:	d0a76603 	ldbu	r2,-25192(gp)
  80252c:	10803fcc 	andi	r2,r2,255
  802530:	1080201c 	xori	r2,r2,128
  802534:	10bfe004 	addi	r2,r2,-128
  802538:	10000526 	beq	r2,zero,802550 <tick+0x19d0>
  80253c:	d0a76f03 	ldbu	r2,-25156(gp)
  802540:	10803fcc 	andi	r2,r2,255
  802544:	1080201c 	xori	r2,r2,128
  802548:	10bfe004 	addi	r2,r2,-128
  80254c:	1000141e 	bne	r2,zero,8025a0 <tick+0x1a20>
  802550:	d0a76183 	ldbu	r2,-25210(gp)
  802554:	10803fcc 	andi	r2,r2,255
  802558:	1080201c 	xori	r2,r2,128
  80255c:	10bfe004 	addi	r2,r2,-128
  802560:	10000526 	beq	r2,zero,802578 <tick+0x19f8>
  802564:	d0a77b03 	ldbu	r2,-25108(gp)
  802568:	10803fcc 	andi	r2,r2,255
  80256c:	1080201c 	xori	r2,r2,128
  802570:	10bfe004 	addi	r2,r2,-128
  802574:	10000a26 	beq	r2,zero,8025a0 <tick+0x1a20>
  802578:	d0a75503 	ldbu	r2,-25260(gp)
  80257c:	10803fcc 	andi	r2,r2,255
  802580:	1080201c 	xori	r2,r2,128
  802584:	10bfe004 	addi	r2,r2,-128
  802588:	10000726 	beq	r2,zero,8025a8 <tick+0x1a28>
  80258c:	d0a77a83 	ldbu	r2,-25110(gp)
  802590:	10803fcc 	andi	r2,r2,255
  802594:	1080201c 	xori	r2,r2,128
  802598:	10bfe004 	addi	r2,r2,-128
  80259c:	10000226 	beq	r2,zero,8025a8 <tick+0x1a28>
  8025a0:	00800044 	movi	r2,1
  8025a4:	00000106 	br	8025ac <tick+0x1a2c>
  8025a8:	0005883a 	mov	r2,zero
  8025ac:	d0a76945 	stb	r2,-25179(gp)
      g89 =((g83&&(!(_cg83)))||(g98&&(!(_cg98))));
  8025b0:	d0a75503 	ldbu	r2,-25260(gp)
  8025b4:	10803fcc 	andi	r2,r2,255
  8025b8:	1080201c 	xori	r2,r2,128
  8025bc:	10bfe004 	addi	r2,r2,-128
  8025c0:	10000526 	beq	r2,zero,8025d8 <tick+0x1a58>
  8025c4:	d0a77a83 	ldbu	r2,-25110(gp)
  8025c8:	10803fcc 	andi	r2,r2,255
  8025cc:	1080201c 	xori	r2,r2,128
  8025d0:	10bfe004 	addi	r2,r2,-128
  8025d4:	10000a26 	beq	r2,zero,802600 <tick+0x1a80>
  8025d8:	d0a78cc3 	ldbu	r2,-25037(gp)
  8025dc:	10803fcc 	andi	r2,r2,255
  8025e0:	1080201c 	xori	r2,r2,128
  8025e4:	10bfe004 	addi	r2,r2,-128
  8025e8:	10000726 	beq	r2,zero,802608 <tick+0x1a88>
  8025ec:	d0a76583 	ldbu	r2,-25194(gp)
  8025f0:	10803fcc 	andi	r2,r2,255
  8025f4:	1080201c 	xori	r2,r2,128
  8025f8:	10bfe004 	addi	r2,r2,-128
  8025fc:	1000021e 	bne	r2,zero,802608 <tick+0x1a88>
  802600:	00800044 	movi	r2,1
  802604:	00000106 	br	80260c <tick+0x1a8c>
  802608:	0005883a 	mov	r2,zero
  80260c:	d0a78785 	stb	r2,-25058(gp)
      g93 =(g91&&(!(_cg91)));
  802610:	d0a75583 	ldbu	r2,-25258(gp)
  802614:	10803fcc 	andi	r2,r2,255
  802618:	1080201c 	xori	r2,r2,128
  80261c:	10bfe004 	addi	r2,r2,-128
  802620:	10000726 	beq	r2,zero,802640 <tick+0x1ac0>
  802624:	d0a793c3 	ldbu	r2,-25009(gp)
  802628:	10803fcc 	andi	r2,r2,255
  80262c:	1080201c 	xori	r2,r2,128
  802630:	10bfe004 	addi	r2,r2,-128
  802634:	1000021e 	bne	r2,zero,802640 <tick+0x1ac0>
  802638:	00800044 	movi	r2,1
  80263c:	00000106 	br	802644 <tick+0x1ac4>
  802640:	0005883a 	mov	r2,zero
  802644:	d0a785c5 	stb	r2,-25065(gp)
      g103 = g1;
  802648:	d0a763c3 	ldbu	r2,-25201(gp)
  80264c:	d0a75b45 	stb	r2,-25235(gp)
      g105 =(PRE_g104);
  802650:	d0a76bc3 	ldbu	r2,-25169(gp)
  802654:	d0a76ec5 	stb	r2,-25157(gp)
      g105b = g105;
  802658:	d0a76ec3 	ldbu	r2,-25157(gp)
  80265c:	d0a79585 	stb	r2,-25002(gp)
      _cg105 = start_AVI;
  802660:	d0a77103 	ldbu	r2,-25148(gp)
  802664:	d0a7a385 	stb	r2,-24946(gp)
      g108 =(PRE_g107);
  802668:	d0a784c3 	ldbu	r2,-25069(gp)
  80266c:	d0a75685 	stb	r2,-25254(gp)
      _cg108 = AVI_ex;
  802670:	d0a77cc3 	ldbu	r2,-25101(gp)
  802674:	d0a79185 	stb	r2,-25018(gp)
      g109 =(g108&&(!(_cg108)));
  802678:	d0a75683 	ldbu	r2,-25254(gp)
  80267c:	10803fcc 	andi	r2,r2,255
  802680:	1080201c 	xori	r2,r2,128
  802684:	10bfe004 	addi	r2,r2,-128
  802688:	10000726 	beq	r2,zero,8026a8 <tick+0x1b28>
  80268c:	d0a79183 	ldbu	r2,-25018(gp)
  802690:	10803fcc 	andi	r2,r2,255
  802694:	1080201c 	xori	r2,r2,128
  802698:	10bfe004 	addi	r2,r2,-128
  80269c:	1000021e 	bne	r2,zero,8026a8 <tick+0x1b28>
  8026a0:	00800044 	movi	r2,1
  8026a4:	00000106 	br	8026ac <tick+0x1b2c>
  8026a8:	0005883a 	mov	r2,zero
  8026ac:	d0a7a045 	stb	r2,-24959(gp)
      if(g109){
  8026b0:	d0a7a043 	ldbu	r2,-24959(gp)
  8026b4:	10803fcc 	andi	r2,r2,255
  8026b8:	1080201c 	xori	r2,r2,128
  8026bc:	10bfe004 	addi	r2,r2,-128
  8026c0:	10000226 	beq	r2,zero,8026cc <tick+0x1b4c>
         AVI_counting =(AVI_counting||1);
  8026c4:	00800044 	movi	r2,1
  8026c8:	d0a7a105 	stb	r2,-24956(gp)
      }
      g106 =((g105b&&_cg105)||g109);
  8026cc:	d0a79583 	ldbu	r2,-25002(gp)
  8026d0:	10803fcc 	andi	r2,r2,255
  8026d4:	1080201c 	xori	r2,r2,128
  8026d8:	10bfe004 	addi	r2,r2,-128
  8026dc:	10000526 	beq	r2,zero,8026f4 <tick+0x1b74>
  8026e0:	d0a7a383 	ldbu	r2,-24946(gp)
  8026e4:	10803fcc 	andi	r2,r2,255
  8026e8:	1080201c 	xori	r2,r2,128
  8026ec:	10bfe004 	addi	r2,r2,-128
  8026f0:	1000051e 	bne	r2,zero,802708 <tick+0x1b88>
  8026f4:	d0a7a043 	ldbu	r2,-24959(gp)
  8026f8:	10803fcc 	andi	r2,r2,255
  8026fc:	1080201c 	xori	r2,r2,128
  802700:	10bfe004 	addi	r2,r2,-128
  802704:	10000226 	beq	r2,zero,802710 <tick+0x1b90>
  802708:	00800044 	movi	r2,1
  80270c:	00000106 	br	802714 <tick+0x1b94>
  802710:	0005883a 	mov	r2,zero
  802714:	d0a7a185 	stb	r2,-24954(gp)
      _cg106 = stop_AVI;
  802718:	d0a77143 	ldbu	r2,-25147(gp)
  80271c:	d0a78845 	stb	r2,-25055(gp)
      g104 =((g106&&_cg106)||(g105b&&(!(_cg105)))||g103||(g108&&_cg108));
  802720:	d0a7a183 	ldbu	r2,-24954(gp)
  802724:	10803fcc 	andi	r2,r2,255
  802728:	1080201c 	xori	r2,r2,128
  80272c:	10bfe004 	addi	r2,r2,-128
  802730:	10000526 	beq	r2,zero,802748 <tick+0x1bc8>
  802734:	d0a78843 	ldbu	r2,-25055(gp)
  802738:	10803fcc 	andi	r2,r2,255
  80273c:	1080201c 	xori	r2,r2,128
  802740:	10bfe004 	addi	r2,r2,-128
  802744:	1000191e 	bne	r2,zero,8027ac <tick+0x1c2c>
  802748:	d0a79583 	ldbu	r2,-25002(gp)
  80274c:	10803fcc 	andi	r2,r2,255
  802750:	1080201c 	xori	r2,r2,128
  802754:	10bfe004 	addi	r2,r2,-128
  802758:	10000526 	beq	r2,zero,802770 <tick+0x1bf0>
  80275c:	d0a7a383 	ldbu	r2,-24946(gp)
  802760:	10803fcc 	andi	r2,r2,255
  802764:	1080201c 	xori	r2,r2,128
  802768:	10bfe004 	addi	r2,r2,-128
  80276c:	10000f26 	beq	r2,zero,8027ac <tick+0x1c2c>
  802770:	d0a75b43 	ldbu	r2,-25235(gp)
  802774:	10803fcc 	andi	r2,r2,255
  802778:	1080201c 	xori	r2,r2,128
  80277c:	10bfe004 	addi	r2,r2,-128
  802780:	10000a1e 	bne	r2,zero,8027ac <tick+0x1c2c>
  802784:	d0a75683 	ldbu	r2,-25254(gp)
  802788:	10803fcc 	andi	r2,r2,255
  80278c:	1080201c 	xori	r2,r2,128
  802790:	10bfe004 	addi	r2,r2,-128
  802794:	10000726 	beq	r2,zero,8027b4 <tick+0x1c34>
  802798:	d0a79183 	ldbu	r2,-25018(gp)
  80279c:	10803fcc 	andi	r2,r2,255
  8027a0:	1080201c 	xori	r2,r2,128
  8027a4:	10bfe004 	addi	r2,r2,-128
  8027a8:	10000226 	beq	r2,zero,8027b4 <tick+0x1c34>
  8027ac:	00800044 	movi	r2,1
  8027b0:	00000106 	br	8027b8 <tick+0x1c38>
  8027b4:	0005883a 	mov	r2,zero
  8027b8:	d0a78c05 	stb	r2,-25040(gp)
      g107 =(g106&&(!(_cg106)));
  8027bc:	d0a7a183 	ldbu	r2,-24954(gp)
  8027c0:	10803fcc 	andi	r2,r2,255
  8027c4:	1080201c 	xori	r2,r2,128
  8027c8:	10bfe004 	addi	r2,r2,-128
  8027cc:	10000726 	beq	r2,zero,8027ec <tick+0x1c6c>
  8027d0:	d0a78843 	ldbu	r2,-25055(gp)
  8027d4:	10803fcc 	andi	r2,r2,255
  8027d8:	1080201c 	xori	r2,r2,128
  8027dc:	10bfe004 	addi	r2,r2,-128
  8027e0:	1000021e 	bne	r2,zero,8027ec <tick+0x1c6c>
  8027e4:	00800044 	movi	r2,1
  8027e8:	00000106 	br	8027f0 <tick+0x1c70>
  8027ec:	0005883a 	mov	r2,zero
  8027f0:	d0a78b05 	stb	r2,-25044(gp)
      g111 = g1;
  8027f4:	d0a763c3 	ldbu	r2,-25201(gp)
  8027f8:	d0a75745 	stb	r2,-25251(gp)
      g115 =(PRE_g114);
  8027fc:	d0a75c83 	ldbu	r2,-25230(gp)
  802800:	d0a76085 	stb	r2,-25214(gp)
      _cg115 = PVARP_ex;
  802804:	d0a79103 	ldbu	r2,-25020(gp)
  802808:	d0a78ac5 	stb	r2,-25045(gp)
      g113 =(PRE_g112);
  80280c:	d0a755c3 	ldbu	r2,-25257(gp)
  802810:	d0a78b45 	stb	r2,-25043(gp)
      g113b = g113;
  802814:	d0a78b43 	ldbu	r2,-25043(gp)
  802818:	d0a75985 	stb	r2,-25242(gp)
      _cg113 = start_PVARP;
  80281c:	d0a78343 	ldbu	r2,-25075(gp)
  802820:	d0a79905 	stb	r2,-24988(gp)
      g112 =((g115&&_cg115)||(g113b&&(!(_cg113)))||g111);
  802824:	d0a76083 	ldbu	r2,-25214(gp)
  802828:	10803fcc 	andi	r2,r2,255
  80282c:	1080201c 	xori	r2,r2,128
  802830:	10bfe004 	addi	r2,r2,-128
  802834:	10000526 	beq	r2,zero,80284c <tick+0x1ccc>
  802838:	d0a78ac3 	ldbu	r2,-25045(gp)
  80283c:	10803fcc 	andi	r2,r2,255
  802840:	1080201c 	xori	r2,r2,128
  802844:	10bfe004 	addi	r2,r2,-128
  802848:	10000f1e 	bne	r2,zero,802888 <tick+0x1d08>
  80284c:	d0a75983 	ldbu	r2,-25242(gp)
  802850:	10803fcc 	andi	r2,r2,255
  802854:	1080201c 	xori	r2,r2,128
  802858:	10bfe004 	addi	r2,r2,-128
  80285c:	10000526 	beq	r2,zero,802874 <tick+0x1cf4>
  802860:	d0a79903 	ldbu	r2,-24988(gp)
  802864:	10803fcc 	andi	r2,r2,255
  802868:	1080201c 	xori	r2,r2,128
  80286c:	10bfe004 	addi	r2,r2,-128
  802870:	10000526 	beq	r2,zero,802888 <tick+0x1d08>
  802874:	d0a75743 	ldbu	r2,-25251(gp)
  802878:	10803fcc 	andi	r2,r2,255
  80287c:	1080201c 	xori	r2,r2,128
  802880:	10bfe004 	addi	r2,r2,-128
  802884:	10000226 	beq	r2,zero,802890 <tick+0x1d10>
  802888:	00800044 	movi	r2,1
  80288c:	00000106 	br	802894 <tick+0x1d14>
  802890:	0005883a 	mov	r2,zero
  802894:	d0a75a45 	stb	r2,-25239(gp)
      g116 =(g115&&(!(_cg115)));
  802898:	d0a76083 	ldbu	r2,-25214(gp)
  80289c:	10803fcc 	andi	r2,r2,255
  8028a0:	1080201c 	xori	r2,r2,128
  8028a4:	10bfe004 	addi	r2,r2,-128
  8028a8:	10000726 	beq	r2,zero,8028c8 <tick+0x1d48>
  8028ac:	d0a78ac3 	ldbu	r2,-25045(gp)
  8028b0:	10803fcc 	andi	r2,r2,255
  8028b4:	1080201c 	xori	r2,r2,128
  8028b8:	10bfe004 	addi	r2,r2,-128
  8028bc:	1000021e 	bne	r2,zero,8028c8 <tick+0x1d48>
  8028c0:	00800044 	movi	r2,1
  8028c4:	00000106 	br	8028cc <tick+0x1d4c>
  8028c8:	0005883a 	mov	r2,zero
  8028cc:	d0a78f85 	stb	r2,-25026(gp)
      if(g116){
  8028d0:	d0a78f83 	ldbu	r2,-25026(gp)
  8028d4:	10803fcc 	andi	r2,r2,255
  8028d8:	1080201c 	xori	r2,r2,128
  8028dc:	10bfe004 	addi	r2,r2,-128
  8028e0:	10000226 	beq	r2,zero,8028ec <tick+0x1d6c>
         PVARP_counting =(PVARP_counting||1);
  8028e4:	00800044 	movi	r2,1
  8028e8:	d0a76c85 	stb	r2,-25166(gp)
      }
      g114 =(g116||(g113b&&_cg113));
  8028ec:	d0a78f83 	ldbu	r2,-25026(gp)
  8028f0:	10803fcc 	andi	r2,r2,255
  8028f4:	1080201c 	xori	r2,r2,128
  8028f8:	10bfe004 	addi	r2,r2,-128
  8028fc:	10000a1e 	bne	r2,zero,802928 <tick+0x1da8>
  802900:	d0a75983 	ldbu	r2,-25242(gp)
  802904:	10803fcc 	andi	r2,r2,255
  802908:	1080201c 	xori	r2,r2,128
  80290c:	10bfe004 	addi	r2,r2,-128
  802910:	10000726 	beq	r2,zero,802930 <tick+0x1db0>
  802914:	d0a79903 	ldbu	r2,-24988(gp)
  802918:	10803fcc 	andi	r2,r2,255
  80291c:	1080201c 	xori	r2,r2,128
  802920:	10bfe004 	addi	r2,r2,-128
  802924:	10000226 	beq	r2,zero,802930 <tick+0x1db0>
  802928:	00800044 	movi	r2,1
  80292c:	00000106 	br	802934 <tick+0x1db4>
  802930:	0005883a 	mov	r2,zero
  802934:	d0a77e05 	stb	r2,-25096(gp)
      g118 = g1;
  802938:	d0a763c3 	ldbu	r2,-25201(gp)
  80293c:	d0a76a05 	stb	r2,-25176(gp)
      g123 =(PRE_g122);
  802940:	d0a757c3 	ldbu	r2,-25249(gp)
  802944:	d0a76285 	stb	r2,-25206(gp)
      _cg123 = AEI_ex;
  802948:	d0a75ac3 	ldbu	r2,-25237(gp)
  80294c:	d0a76105 	stb	r2,-25212(gp)
      g120 =(PRE_g119);
  802950:	d0a77fc3 	ldbu	r2,-25089(gp)
  802954:	d0a79e45 	stb	r2,-24967(gp)
      g120b = g120;
  802958:	d0a79e43 	ldbu	r2,-24967(gp)
  80295c:	d0a778c5 	stb	r2,-25117(gp)
      _cg120 = start_AEI;
  802960:	d0a78883 	ldbu	r2,-25054(gp)
  802964:	d0a79e85 	stb	r2,-24966(gp)
      g124 =(g123&&(!(_cg123)));
  802968:	d0a76283 	ldbu	r2,-25206(gp)
  80296c:	10803fcc 	andi	r2,r2,255
  802970:	1080201c 	xori	r2,r2,128
  802974:	10bfe004 	addi	r2,r2,-128
  802978:	10000726 	beq	r2,zero,802998 <tick+0x1e18>
  80297c:	d0a76103 	ldbu	r2,-25212(gp)
  802980:	10803fcc 	andi	r2,r2,255
  802984:	1080201c 	xori	r2,r2,128
  802988:	10bfe004 	addi	r2,r2,-128
  80298c:	1000021e 	bne	r2,zero,802998 <tick+0x1e18>
  802990:	00800044 	movi	r2,1
  802994:	00000106 	br	80299c <tick+0x1e1c>
  802998:	0005883a 	mov	r2,zero
  80299c:	d0a79145 	stb	r2,-25019(gp)
      if(g124){
  8029a0:	d0a79143 	ldbu	r2,-25019(gp)
  8029a4:	10803fcc 	andi	r2,r2,255
  8029a8:	1080201c 	xori	r2,r2,128
  8029ac:	10bfe004 	addi	r2,r2,-128
  8029b0:	10000226 	beq	r2,zero,8029bc <tick+0x1e3c>
         AEI_counting =(AEI_counting||1);
  8029b4:	00800044 	movi	r2,1
  8029b8:	d0a77c05 	stb	r2,-25104(gp)
      }
      g121 =(g124||(g120b&&_cg120));
  8029bc:	d0a79143 	ldbu	r2,-25019(gp)
  8029c0:	10803fcc 	andi	r2,r2,255
  8029c4:	1080201c 	xori	r2,r2,128
  8029c8:	10bfe004 	addi	r2,r2,-128
  8029cc:	10000a1e 	bne	r2,zero,8029f8 <tick+0x1e78>
  8029d0:	d0a778c3 	ldbu	r2,-25117(gp)
  8029d4:	10803fcc 	andi	r2,r2,255
  8029d8:	1080201c 	xori	r2,r2,128
  8029dc:	10bfe004 	addi	r2,r2,-128
  8029e0:	10000726 	beq	r2,zero,802a00 <tick+0x1e80>
  8029e4:	d0a79e83 	ldbu	r2,-24966(gp)
  8029e8:	10803fcc 	andi	r2,r2,255
  8029ec:	1080201c 	xori	r2,r2,128
  8029f0:	10bfe004 	addi	r2,r2,-128
  8029f4:	10000226 	beq	r2,zero,802a00 <tick+0x1e80>
  8029f8:	00800044 	movi	r2,1
  8029fc:	00000106 	br	802a04 <tick+0x1e84>
  802a00:	0005883a 	mov	r2,zero
  802a04:	d0a79d45 	stb	r2,-24971(gp)
      _cg121 = stop_AEI;
  802a08:	d0a77803 	ldbu	r2,-25120(gp)
  802a0c:	d0a78505 	stb	r2,-25068(gp)
      g119 =(g118||(g123&&_cg123)||(g120b&&(!(_cg120)))||(g121&&_cg121));
  802a10:	d0a76a03 	ldbu	r2,-25176(gp)
  802a14:	10803fcc 	andi	r2,r2,255
  802a18:	1080201c 	xori	r2,r2,128
  802a1c:	10bfe004 	addi	r2,r2,-128
  802a20:	10001e1e 	bne	r2,zero,802a9c <tick+0x1f1c>
  802a24:	d0a76283 	ldbu	r2,-25206(gp)
  802a28:	10803fcc 	andi	r2,r2,255
  802a2c:	1080201c 	xori	r2,r2,128
  802a30:	10bfe004 	addi	r2,r2,-128
  802a34:	10000526 	beq	r2,zero,802a4c <tick+0x1ecc>
  802a38:	d0a76103 	ldbu	r2,-25212(gp)
  802a3c:	10803fcc 	andi	r2,r2,255
  802a40:	1080201c 	xori	r2,r2,128
  802a44:	10bfe004 	addi	r2,r2,-128
  802a48:	1000141e 	bne	r2,zero,802a9c <tick+0x1f1c>
  802a4c:	d0a778c3 	ldbu	r2,-25117(gp)
  802a50:	10803fcc 	andi	r2,r2,255
  802a54:	1080201c 	xori	r2,r2,128
  802a58:	10bfe004 	addi	r2,r2,-128
  802a5c:	10000526 	beq	r2,zero,802a74 <tick+0x1ef4>
  802a60:	d0a79e83 	ldbu	r2,-24966(gp)
  802a64:	10803fcc 	andi	r2,r2,255
  802a68:	1080201c 	xori	r2,r2,128
  802a6c:	10bfe004 	addi	r2,r2,-128
  802a70:	10000a26 	beq	r2,zero,802a9c <tick+0x1f1c>
  802a74:	d0a79d43 	ldbu	r2,-24971(gp)
  802a78:	10803fcc 	andi	r2,r2,255
  802a7c:	1080201c 	xori	r2,r2,128
  802a80:	10bfe004 	addi	r2,r2,-128
  802a84:	10000726 	beq	r2,zero,802aa4 <tick+0x1f24>
  802a88:	d0a78503 	ldbu	r2,-25068(gp)
  802a8c:	10803fcc 	andi	r2,r2,255
  802a90:	1080201c 	xori	r2,r2,128
  802a94:	10bfe004 	addi	r2,r2,-128
  802a98:	10000226 	beq	r2,zero,802aa4 <tick+0x1f24>
  802a9c:	00800044 	movi	r2,1
  802aa0:	00000106 	br	802aa8 <tick+0x1f28>
  802aa4:	0005883a 	mov	r2,zero
  802aa8:	d0a78605 	stb	r2,-25064(gp)
      g122 =(g121&&(!(_cg121)));
  802aac:	d0a79d43 	ldbu	r2,-24971(gp)
  802ab0:	10803fcc 	andi	r2,r2,255
  802ab4:	1080201c 	xori	r2,r2,128
  802ab8:	10bfe004 	addi	r2,r2,-128
  802abc:	10000726 	beq	r2,zero,802adc <tick+0x1f5c>
  802ac0:	d0a78503 	ldbu	r2,-25068(gp)
  802ac4:	10803fcc 	andi	r2,r2,255
  802ac8:	1080201c 	xori	r2,r2,128
  802acc:	10bfe004 	addi	r2,r2,-128
  802ad0:	1000021e 	bne	r2,zero,802adc <tick+0x1f5c>
  802ad4:	00800044 	movi	r2,1
  802ad8:	00000106 	br	802ae0 <tick+0x1f60>
  802adc:	0005883a 	mov	r2,zero
  802ae0:	d0a78005 	stb	r2,-25088(gp)
      g126 = g1;
  802ae4:	d0a763c3 	ldbu	r2,-25201(gp)
  802ae8:	d0a76505 	stb	r2,-25196(gp)
      g131 =(PRE_g130);
  802aec:	d0a78c43 	ldbu	r2,-25039(gp)
  802af0:	d0a77f05 	stb	r2,-25092(gp)
      g131b = g131;
  802af4:	d0a77f03 	ldbu	r2,-25092(gp)
  802af8:	d0a764c5 	stb	r2,-25197(gp)
      if(g131b){
  802afc:	d0a764c3 	ldbu	r2,-25197(gp)
  802b00:	10803fcc 	andi	r2,r2,255
  802b04:	1080201c 	xori	r2,r2,128
  802b08:	10bfe004 	addi	r2,r2,-128
  802b0c:	10000226 	beq	r2,zero,802b18 <tick+0x1f98>
         LRI_counting =(LRI_counting||1);
  802b10:	00800044 	movi	r2,1
  802b14:	d0a77005 	stb	r2,-25152(gp)
      }
      g128 =(PRE_g127);
  802b18:	d0a79bc3 	ldbu	r2,-24977(gp)
  802b1c:	d0a77785 	stb	r2,-25122(gp)
      g128b = g128;
  802b20:	d0a77783 	ldbu	r2,-25122(gp)
  802b24:	d0a79385 	stb	r2,-25010(gp)
      _cg128 = start_LRI;
  802b28:	d0a78a43 	ldbu	r2,-25047(gp)
  802b2c:	d0a76045 	stb	r2,-25215(gp)
      g129 =(g131b||(g128b&&_cg128));
  802b30:	d0a764c3 	ldbu	r2,-25197(gp)
  802b34:	10803fcc 	andi	r2,r2,255
  802b38:	1080201c 	xori	r2,r2,128
  802b3c:	10bfe004 	addi	r2,r2,-128
  802b40:	10000a1e 	bne	r2,zero,802b6c <tick+0x1fec>
  802b44:	d0a79383 	ldbu	r2,-25010(gp)
  802b48:	10803fcc 	andi	r2,r2,255
  802b4c:	1080201c 	xori	r2,r2,128
  802b50:	10bfe004 	addi	r2,r2,-128
  802b54:	10000726 	beq	r2,zero,802b74 <tick+0x1ff4>
  802b58:	d0a76043 	ldbu	r2,-25215(gp)
  802b5c:	10803fcc 	andi	r2,r2,255
  802b60:	1080201c 	xori	r2,r2,128
  802b64:	10bfe004 	addi	r2,r2,-128
  802b68:	10000226 	beq	r2,zero,802b74 <tick+0x1ff4>
  802b6c:	00800044 	movi	r2,1
  802b70:	00000106 	br	802b78 <tick+0x1ff8>
  802b74:	0005883a 	mov	r2,zero
  802b78:	d0a77ec5 	stb	r2,-25093(gp)
      _cg129 = stop_LRI;
  802b7c:	d0a79cc3 	ldbu	r2,-24973(gp)
  802b80:	d0a79305 	stb	r2,-25012(gp)
      g127 =(g126||(g129&&_cg129)||(g128b&&(!(_cg128))));
  802b84:	d0a76503 	ldbu	r2,-25196(gp)
  802b88:	10803fcc 	andi	r2,r2,255
  802b8c:	1080201c 	xori	r2,r2,128
  802b90:	10bfe004 	addi	r2,r2,-128
  802b94:	1000141e 	bne	r2,zero,802be8 <tick+0x2068>
  802b98:	d0a77ec3 	ldbu	r2,-25093(gp)
  802b9c:	10803fcc 	andi	r2,r2,255
  802ba0:	1080201c 	xori	r2,r2,128
  802ba4:	10bfe004 	addi	r2,r2,-128
  802ba8:	10000526 	beq	r2,zero,802bc0 <tick+0x2040>
  802bac:	d0a79303 	ldbu	r2,-25012(gp)
  802bb0:	10803fcc 	andi	r2,r2,255
  802bb4:	1080201c 	xori	r2,r2,128
  802bb8:	10bfe004 	addi	r2,r2,-128
  802bbc:	10000a1e 	bne	r2,zero,802be8 <tick+0x2068>
  802bc0:	d0a79383 	ldbu	r2,-25010(gp)
  802bc4:	10803fcc 	andi	r2,r2,255
  802bc8:	1080201c 	xori	r2,r2,128
  802bcc:	10bfe004 	addi	r2,r2,-128
  802bd0:	10000726 	beq	r2,zero,802bf0 <tick+0x2070>
  802bd4:	d0a76043 	ldbu	r2,-25215(gp)
  802bd8:	10803fcc 	andi	r2,r2,255
  802bdc:	1080201c 	xori	r2,r2,128
  802be0:	10bfe004 	addi	r2,r2,-128
  802be4:	1000021e 	bne	r2,zero,802bf0 <tick+0x2070>
  802be8:	00800044 	movi	r2,1
  802bec:	00000106 	br	802bf4 <tick+0x2074>
  802bf0:	0005883a 	mov	r2,zero
  802bf4:	d0a75d05 	stb	r2,-25228(gp)
      g130 =(g129&&(!(_cg129)));
  802bf8:	d0a77ec3 	ldbu	r2,-25093(gp)
  802bfc:	10803fcc 	andi	r2,r2,255
  802c00:	1080201c 	xori	r2,r2,128
  802c04:	10bfe004 	addi	r2,r2,-128
  802c08:	10000726 	beq	r2,zero,802c28 <tick+0x20a8>
  802c0c:	d0a79303 	ldbu	r2,-25012(gp)
  802c10:	10803fcc 	andi	r2,r2,255
  802c14:	1080201c 	xori	r2,r2,128
  802c18:	10bfe004 	addi	r2,r2,-128
  802c1c:	1000021e 	bne	r2,zero,802c28 <tick+0x20a8>
  802c20:	00800044 	movi	r2,1
  802c24:	00000106 	br	802c2c <tick+0x20ac>
  802c28:	0005883a 	mov	r2,zero
  802c2c:	d0a79c05 	stb	r2,-24976(gp)
      g133 = g1;
  802c30:	d0a763c3 	ldbu	r2,-25201(gp)
  802c34:	d0a79fc5 	stb	r2,-24961(gp)
      g135 =(PRE_g134);
  802c38:	d0a75843 	ldbu	r2,-25247(gp)
  802c3c:	d0a76445 	stb	r2,-25199(gp)
      g135b = g135;
  802c40:	d0a76443 	ldbu	r2,-25199(gp)
  802c44:	d0a79a85 	stb	r2,-24982(gp)
      _cg135 = start_URI;
  802c48:	d0a78e03 	ldbu	r2,-25032(gp)
  802c4c:	d0a79c45 	stb	r2,-24975(gp)
      g136 =((g135b&&_cg135)||g139);
  802c50:	d0a79a83 	ldbu	r2,-24982(gp)
  802c54:	10803fcc 	andi	r2,r2,255
  802c58:	1080201c 	xori	r2,r2,128
  802c5c:	10bfe004 	addi	r2,r2,-128
  802c60:	10000526 	beq	r2,zero,802c78 <tick+0x20f8>
  802c64:	d0a79c43 	ldbu	r2,-24975(gp)
  802c68:	10803fcc 	andi	r2,r2,255
  802c6c:	1080201c 	xori	r2,r2,128
  802c70:	10bfe004 	addi	r2,r2,-128
  802c74:	1000051e 	bne	r2,zero,802c8c <tick+0x210c>
  802c78:	d0a75603 	ldbu	r2,-25256(gp)
  802c7c:	10803fcc 	andi	r2,r2,255
  802c80:	1080201c 	xori	r2,r2,128
  802c84:	10bfe004 	addi	r2,r2,-128
  802c88:	10000226 	beq	r2,zero,802c94 <tick+0x2114>
  802c8c:	00800044 	movi	r2,1
  802c90:	00000106 	br	802c98 <tick+0x2118>
  802c94:	0005883a 	mov	r2,zero
  802c98:	d0a777c5 	stb	r2,-25121(gp)
      _cg136 = stop_URI;
  802c9c:	d0a78143 	ldbu	r2,-25083(gp)
  802ca0:	d0a781c5 	stb	r2,-25081(gp)
      g134 =(g133||(g136&&_cg136)||(g135b&&(!(_cg135)))||(g138&&_cg138));
  802ca4:	d0a79fc3 	ldbu	r2,-24961(gp)
  802ca8:	10803fcc 	andi	r2,r2,255
  802cac:	1080201c 	xori	r2,r2,128
  802cb0:	10bfe004 	addi	r2,r2,-128
  802cb4:	10001e1e 	bne	r2,zero,802d30 <tick+0x21b0>
  802cb8:	d0a777c3 	ldbu	r2,-25121(gp)
  802cbc:	10803fcc 	andi	r2,r2,255
  802cc0:	1080201c 	xori	r2,r2,128
  802cc4:	10bfe004 	addi	r2,r2,-128
  802cc8:	10000526 	beq	r2,zero,802ce0 <tick+0x2160>
  802ccc:	d0a781c3 	ldbu	r2,-25081(gp)
  802cd0:	10803fcc 	andi	r2,r2,255
  802cd4:	1080201c 	xori	r2,r2,128
  802cd8:	10bfe004 	addi	r2,r2,-128
  802cdc:	1000141e 	bne	r2,zero,802d30 <tick+0x21b0>
  802ce0:	d0a79a83 	ldbu	r2,-24982(gp)
  802ce4:	10803fcc 	andi	r2,r2,255
  802ce8:	1080201c 	xori	r2,r2,128
  802cec:	10bfe004 	addi	r2,r2,-128
  802cf0:	10000526 	beq	r2,zero,802d08 <tick+0x2188>
  802cf4:	d0a79c43 	ldbu	r2,-24975(gp)
  802cf8:	10803fcc 	andi	r2,r2,255
  802cfc:	1080201c 	xori	r2,r2,128
  802d00:	10bfe004 	addi	r2,r2,-128
  802d04:	10000a26 	beq	r2,zero,802d30 <tick+0x21b0>
  802d08:	d0a78a83 	ldbu	r2,-25046(gp)
  802d0c:	10803fcc 	andi	r2,r2,255
  802d10:	1080201c 	xori	r2,r2,128
  802d14:	10bfe004 	addi	r2,r2,-128
  802d18:	10000726 	beq	r2,zero,802d38 <tick+0x21b8>
  802d1c:	d0a79883 	ldbu	r2,-24990(gp)
  802d20:	10803fcc 	andi	r2,r2,255
  802d24:	1080201c 	xori	r2,r2,128
  802d28:	10bfe004 	addi	r2,r2,-128
  802d2c:	10000226 	beq	r2,zero,802d38 <tick+0x21b8>
  802d30:	00800044 	movi	r2,1
  802d34:	00000106 	br	802d3c <tick+0x21bc>
  802d38:	0005883a 	mov	r2,zero
  802d3c:	d0a78185 	stb	r2,-25082(gp)
      g137 =(g136&&(!(_cg136)));
  802d40:	d0a777c3 	ldbu	r2,-25121(gp)
  802d44:	10803fcc 	andi	r2,r2,255
  802d48:	1080201c 	xori	r2,r2,128
  802d4c:	10bfe004 	addi	r2,r2,-128
  802d50:	10000726 	beq	r2,zero,802d70 <tick+0x21f0>
  802d54:	d0a781c3 	ldbu	r2,-25081(gp)
  802d58:	10803fcc 	andi	r2,r2,255
  802d5c:	1080201c 	xori	r2,r2,128
  802d60:	10bfe004 	addi	r2,r2,-128
  802d64:	1000021e 	bne	r2,zero,802d70 <tick+0x21f0>
  802d68:	00800044 	movi	r2,1
  802d6c:	00000106 	br	802d74 <tick+0x21f4>
  802d70:	0005883a 	mov	r2,zero
  802d74:	d0a79285 	stb	r2,-25014(gp)
      g141 = g1;
  802d78:	d0a763c3 	ldbu	r2,-25201(gp)
  802d7c:	d0a78f45 	stb	r2,-25027(gp)
      g143 =(PRE_g142);
  802d80:	d0a75f03 	ldbu	r2,-25220(gp)
  802d84:	d0a77845 	stb	r2,-25119(gp)
      g143b = g143;
  802d88:	d0a77843 	ldbu	r2,-25119(gp)
  802d8c:	d0a79d85 	stb	r2,-24970(gp)
      _cg143 = start_VRP;
  802d90:	d0a76a83 	ldbu	r2,-25174(gp)
  802d94:	d0a7a085 	stb	r2,-24958(gp)
      g145 =(PRE_g144);
  802d98:	d0a76f83 	ldbu	r2,-25154(gp)
  802d9c:	d0a75f85 	stb	r2,-25218(gp)
      _cg145 = VRP_ex;
  802da0:	d0a77d83 	ldbu	r2,-25098(gp)
  802da4:	d0a77dc5 	stb	r2,-25097(gp)
      g142 =((g143b&&(!(_cg143)))||g141||(g145&&_cg145));
  802da8:	d0a79d83 	ldbu	r2,-24970(gp)
  802dac:	10803fcc 	andi	r2,r2,255
  802db0:	1080201c 	xori	r2,r2,128
  802db4:	10bfe004 	addi	r2,r2,-128
  802db8:	10000526 	beq	r2,zero,802dd0 <tick+0x2250>
  802dbc:	d0a7a083 	ldbu	r2,-24958(gp)
  802dc0:	10803fcc 	andi	r2,r2,255
  802dc4:	1080201c 	xori	r2,r2,128
  802dc8:	10bfe004 	addi	r2,r2,-128
  802dcc:	10000f26 	beq	r2,zero,802e0c <tick+0x228c>
  802dd0:	d0a78f43 	ldbu	r2,-25027(gp)
  802dd4:	10803fcc 	andi	r2,r2,255
  802dd8:	1080201c 	xori	r2,r2,128
  802ddc:	10bfe004 	addi	r2,r2,-128
  802de0:	10000a1e 	bne	r2,zero,802e0c <tick+0x228c>
  802de4:	d0a75f83 	ldbu	r2,-25218(gp)
  802de8:	10803fcc 	andi	r2,r2,255
  802dec:	1080201c 	xori	r2,r2,128
  802df0:	10bfe004 	addi	r2,r2,-128
  802df4:	10000726 	beq	r2,zero,802e14 <tick+0x2294>
  802df8:	d0a77dc3 	ldbu	r2,-25097(gp)
  802dfc:	10803fcc 	andi	r2,r2,255
  802e00:	1080201c 	xori	r2,r2,128
  802e04:	10bfe004 	addi	r2,r2,-128
  802e08:	10000226 	beq	r2,zero,802e14 <tick+0x2294>
  802e0c:	00800044 	movi	r2,1
  802e10:	00000106 	br	802e18 <tick+0x2298>
  802e14:	0005883a 	mov	r2,zero
  802e18:	d0a79705 	stb	r2,-24996(gp)
      g146 =(g145&&(!(_cg145)));
  802e1c:	d0a75f83 	ldbu	r2,-25218(gp)
  802e20:	10803fcc 	andi	r2,r2,255
  802e24:	1080201c 	xori	r2,r2,128
  802e28:	10bfe004 	addi	r2,r2,-128
  802e2c:	10000726 	beq	r2,zero,802e4c <tick+0x22cc>
  802e30:	d0a77dc3 	ldbu	r2,-25097(gp)
  802e34:	10803fcc 	andi	r2,r2,255
  802e38:	1080201c 	xori	r2,r2,128
  802e3c:	10bfe004 	addi	r2,r2,-128
  802e40:	1000021e 	bne	r2,zero,802e4c <tick+0x22cc>
  802e44:	00800044 	movi	r2,1
  802e48:	00000106 	br	802e50 <tick+0x22d0>
  802e4c:	0005883a 	mov	r2,zero
  802e50:	d0a75b05 	stb	r2,-25236(gp)
      if(g146){
  802e54:	d0a75b03 	ldbu	r2,-25236(gp)
  802e58:	10803fcc 	andi	r2,r2,255
  802e5c:	1080201c 	xori	r2,r2,128
  802e60:	10bfe004 	addi	r2,r2,-128
  802e64:	10000226 	beq	r2,zero,802e70 <tick+0x22f0>
         VRP_counting =(VRP_counting||1);
  802e68:	00800044 	movi	r2,1
  802e6c:	d0a78105 	stb	r2,-25084(gp)
      }
      g144 =(g146||(g143b&&_cg143));
  802e70:	d0a75b03 	ldbu	r2,-25236(gp)
  802e74:	10803fcc 	andi	r2,r2,255
  802e78:	1080201c 	xori	r2,r2,128
  802e7c:	10bfe004 	addi	r2,r2,-128
  802e80:	10000a1e 	bne	r2,zero,802eac <tick+0x232c>
  802e84:	d0a79d83 	ldbu	r2,-24970(gp)
  802e88:	10803fcc 	andi	r2,r2,255
  802e8c:	1080201c 	xori	r2,r2,128
  802e90:	10bfe004 	addi	r2,r2,-128
  802e94:	10000726 	beq	r2,zero,802eb4 <tick+0x2334>
  802e98:	d0a7a083 	ldbu	r2,-24958(gp)
  802e9c:	10803fcc 	andi	r2,r2,255
  802ea0:	1080201c 	xori	r2,r2,128
  802ea4:	10bfe004 	addi	r2,r2,-128
  802ea8:	10000226 	beq	r2,zero,802eb4 <tick+0x2334>
  802eac:	00800044 	movi	r2,1
  802eb0:	00000106 	br	802eb8 <tick+0x2338>
  802eb4:	0005883a 	mov	r2,zero
  802eb8:	d0a77d05 	stb	r2,-25100(gp)
      g20_e1 =(!((g4||g6||g9||g13)));
  802ebc:	d0a75643 	ldbu	r2,-25255(gp)
  802ec0:	10803fcc 	andi	r2,r2,255
  802ec4:	1080201c 	xori	r2,r2,128
  802ec8:	10bfe004 	addi	r2,r2,-128
  802ecc:	1000111e 	bne	r2,zero,802f14 <tick+0x2394>
  802ed0:	d0a78fc3 	ldbu	r2,-25025(gp)
  802ed4:	10803fcc 	andi	r2,r2,255
  802ed8:	1080201c 	xori	r2,r2,128
  802edc:	10bfe004 	addi	r2,r2,-128
  802ee0:	10000c1e 	bne	r2,zero,802f14 <tick+0x2394>
  802ee4:	d0a75cc3 	ldbu	r2,-25229(gp)
  802ee8:	10803fcc 	andi	r2,r2,255
  802eec:	1080201c 	xori	r2,r2,128
  802ef0:	10bfe004 	addi	r2,r2,-128
  802ef4:	1000071e 	bne	r2,zero,802f14 <tick+0x2394>
  802ef8:	d0a78c83 	ldbu	r2,-25038(gp)
  802efc:	10803fcc 	andi	r2,r2,255
  802f00:	1080201c 	xori	r2,r2,128
  802f04:	10bfe004 	addi	r2,r2,-128
  802f08:	1000021e 	bne	r2,zero,802f14 <tick+0x2394>
  802f0c:	00800044 	movi	r2,1
  802f10:	00000106 	br	802f18 <tick+0x2398>
  802f14:	0005883a 	mov	r2,zero
  802f18:	d0a7a005 	stb	r2,-24960(gp)
      g33_e2 =(!((g23||g26||g28)));
  802f1c:	d0a77a43 	ldbu	r2,-25111(gp)
  802f20:	10803fcc 	andi	r2,r2,255
  802f24:	1080201c 	xori	r2,r2,128
  802f28:	10bfe004 	addi	r2,r2,-128
  802f2c:	10000c1e 	bne	r2,zero,802f60 <tick+0x23e0>
  802f30:	d0a7a283 	ldbu	r2,-24950(gp)
  802f34:	10803fcc 	andi	r2,r2,255
  802f38:	1080201c 	xori	r2,r2,128
  802f3c:	10bfe004 	addi	r2,r2,-128
  802f40:	1000071e 	bne	r2,zero,802f60 <tick+0x23e0>
  802f44:	d0a79843 	ldbu	r2,-24991(gp)
  802f48:	10803fcc 	andi	r2,r2,255
  802f4c:	1080201c 	xori	r2,r2,128
  802f50:	10bfe004 	addi	r2,r2,-128
  802f54:	1000021e 	bne	r2,zero,802f60 <tick+0x23e0>
  802f58:	00800044 	movi	r2,1
  802f5c:	00000106 	br	802f64 <tick+0x23e4>
  802f60:	0005883a 	mov	r2,zero
  802f64:	d0a76e05 	stb	r2,-25160(gp)
      g50_e3 =(!((g36||g39||g41)));
  802f68:	d0a78743 	ldbu	r2,-25059(gp)
  802f6c:	10803fcc 	andi	r2,r2,255
  802f70:	1080201c 	xori	r2,r2,128
  802f74:	10bfe004 	addi	r2,r2,-128
  802f78:	10000c1e 	bne	r2,zero,802fac <tick+0x242c>
  802f7c:	d0a79dc3 	ldbu	r2,-24969(gp)
  802f80:	10803fcc 	andi	r2,r2,255
  802f84:	1080201c 	xori	r2,r2,128
  802f88:	10bfe004 	addi	r2,r2,-128
  802f8c:	1000071e 	bne	r2,zero,802fac <tick+0x242c>
  802f90:	d0a76983 	ldbu	r2,-25178(gp)
  802f94:	10803fcc 	andi	r2,r2,255
  802f98:	1080201c 	xori	r2,r2,128
  802f9c:	10bfe004 	addi	r2,r2,-128
  802fa0:	1000021e 	bne	r2,zero,802fac <tick+0x242c>
  802fa4:	00800044 	movi	r2,1
  802fa8:	00000106 	br	802fb0 <tick+0x2430>
  802fac:	0005883a 	mov	r2,zero
  802fb0:	d0a76885 	stb	r2,-25182(gp)
      g60_e4 =(!((g53||g56)));
  802fb4:	d0a78d03 	ldbu	r2,-25036(gp)
  802fb8:	10803fcc 	andi	r2,r2,255
  802fbc:	1080201c 	xori	r2,r2,128
  802fc0:	10bfe004 	addi	r2,r2,-128
  802fc4:	1000071e 	bne	r2,zero,802fe4 <tick+0x2464>
  802fc8:	d0a77e43 	ldbu	r2,-25095(gp)
  802fcc:	10803fcc 	andi	r2,r2,255
  802fd0:	1080201c 	xori	r2,r2,128
  802fd4:	10bfe004 	addi	r2,r2,-128
  802fd8:	1000021e 	bne	r2,zero,802fe4 <tick+0x2464>
  802fdc:	00800044 	movi	r2,1
  802fe0:	00000106 	br	802fe8 <tick+0x2468>
  802fe4:	0005883a 	mov	r2,zero
  802fe8:	d0a77685 	stb	r2,-25126(gp)
      g76_e5 =(!((g63||g66||g68)));
  802fec:	d0a783c3 	ldbu	r2,-25073(gp)
  802ff0:	10803fcc 	andi	r2,r2,255
  802ff4:	1080201c 	xori	r2,r2,128
  802ff8:	10bfe004 	addi	r2,r2,-128
  802ffc:	10000c1e 	bne	r2,zero,803030 <tick+0x24b0>
  803000:	d0a77a03 	ldbu	r2,-25112(gp)
  803004:	10803fcc 	andi	r2,r2,255
  803008:	1080201c 	xori	r2,r2,128
  80300c:	10bfe004 	addi	r2,r2,-128
  803010:	1000071e 	bne	r2,zero,803030 <tick+0x24b0>
  803014:	d0a79643 	ldbu	r2,-24999(gp)
  803018:	10803fcc 	andi	r2,r2,255
  80301c:	1080201c 	xori	r2,r2,128
  803020:	10bfe004 	addi	r2,r2,-128
  803024:	1000021e 	bne	r2,zero,803030 <tick+0x24b0>
  803028:	00800044 	movi	r2,1
  80302c:	00000106 	br	803034 <tick+0x24b4>
  803030:	0005883a 	mov	r2,zero
  803034:	d0a78385 	stb	r2,-25074(gp)
      g102_e6 =(!((g79||g82||g85||g90||g94)));
  803038:	d0a773c3 	ldbu	r2,-25137(gp)
  80303c:	10803fcc 	andi	r2,r2,255
  803040:	1080201c 	xori	r2,r2,128
  803044:	10bfe004 	addi	r2,r2,-128
  803048:	1000161e 	bne	r2,zero,8030a4 <tick+0x2524>
  80304c:	d0a76543 	ldbu	r2,-25195(gp)
  803050:	10803fcc 	andi	r2,r2,255
  803054:	1080201c 	xori	r2,r2,128
  803058:	10bfe004 	addi	r2,r2,-128
  80305c:	1000111e 	bne	r2,zero,8030a4 <tick+0x2524>
  803060:	d0a75c03 	ldbu	r2,-25232(gp)
  803064:	10803fcc 	andi	r2,r2,255
  803068:	1080201c 	xori	r2,r2,128
  80306c:	10bfe004 	addi	r2,r2,-128
  803070:	10000c1e 	bne	r2,zero,8030a4 <tick+0x2524>
  803074:	d0a782c3 	ldbu	r2,-25077(gp)
  803078:	10803fcc 	andi	r2,r2,255
  80307c:	1080201c 	xori	r2,r2,128
  803080:	10bfe004 	addi	r2,r2,-128
  803084:	1000071e 	bne	r2,zero,8030a4 <tick+0x2524>
  803088:	d0a77483 	ldbu	r2,-25134(gp)
  80308c:	10803fcc 	andi	r2,r2,255
  803090:	1080201c 	xori	r2,r2,128
  803094:	10bfe004 	addi	r2,r2,-128
  803098:	1000021e 	bne	r2,zero,8030a4 <tick+0x2524>
  80309c:	00800044 	movi	r2,1
  8030a0:	00000106 	br	8030a8 <tick+0x2528>
  8030a4:	0005883a 	mov	r2,zero
  8030a8:	d0a79b45 	stb	r2,-24979(gp)
      g110_e7 =(!((g105||g108)));
  8030ac:	d0a76ec3 	ldbu	r2,-25157(gp)
  8030b0:	10803fcc 	andi	r2,r2,255
  8030b4:	1080201c 	xori	r2,r2,128
  8030b8:	10bfe004 	addi	r2,r2,-128
  8030bc:	1000071e 	bne	r2,zero,8030dc <tick+0x255c>
  8030c0:	d0a75683 	ldbu	r2,-25254(gp)
  8030c4:	10803fcc 	andi	r2,r2,255
  8030c8:	1080201c 	xori	r2,r2,128
  8030cc:	10bfe004 	addi	r2,r2,-128
  8030d0:	1000021e 	bne	r2,zero,8030dc <tick+0x255c>
  8030d4:	00800044 	movi	r2,1
  8030d8:	00000106 	br	8030e0 <tick+0x2560>
  8030dc:	0005883a 	mov	r2,zero
  8030e0:	d0a7a2c5 	stb	r2,-24949(gp)
      g117_e8 =(!((g113||g115)));
  8030e4:	d0a78b43 	ldbu	r2,-25043(gp)
  8030e8:	10803fcc 	andi	r2,r2,255
  8030ec:	1080201c 	xori	r2,r2,128
  8030f0:	10bfe004 	addi	r2,r2,-128
  8030f4:	1000071e 	bne	r2,zero,803114 <tick+0x2594>
  8030f8:	d0a76083 	ldbu	r2,-25214(gp)
  8030fc:	10803fcc 	andi	r2,r2,255
  803100:	1080201c 	xori	r2,r2,128
  803104:	10bfe004 	addi	r2,r2,-128
  803108:	1000021e 	bne	r2,zero,803114 <tick+0x2594>
  80310c:	00800044 	movi	r2,1
  803110:	00000106 	br	803118 <tick+0x2598>
  803114:	0005883a 	mov	r2,zero
  803118:	d0a758c5 	stb	r2,-25245(gp)
      g125_e9 =(!((g120||g123)));
  80311c:	d0a79e43 	ldbu	r2,-24967(gp)
  803120:	10803fcc 	andi	r2,r2,255
  803124:	1080201c 	xori	r2,r2,128
  803128:	10bfe004 	addi	r2,r2,-128
  80312c:	1000071e 	bne	r2,zero,80314c <tick+0x25cc>
  803130:	d0a76283 	ldbu	r2,-25206(gp)
  803134:	10803fcc 	andi	r2,r2,255
  803138:	1080201c 	xori	r2,r2,128
  80313c:	10bfe004 	addi	r2,r2,-128
  803140:	1000021e 	bne	r2,zero,80314c <tick+0x25cc>
  803144:	00800044 	movi	r2,1
  803148:	00000106 	br	803150 <tick+0x25d0>
  80314c:	0005883a 	mov	r2,zero
  803150:	d0a78805 	stb	r2,-25056(gp)
      g132_e10 =(!((g128||g131)));
  803154:	d0a77783 	ldbu	r2,-25122(gp)
  803158:	10803fcc 	andi	r2,r2,255
  80315c:	1080201c 	xori	r2,r2,128
  803160:	10bfe004 	addi	r2,r2,-128
  803164:	1000071e 	bne	r2,zero,803184 <tick+0x2604>
  803168:	d0a77f03 	ldbu	r2,-25092(gp)
  80316c:	10803fcc 	andi	r2,r2,255
  803170:	1080201c 	xori	r2,r2,128
  803174:	10bfe004 	addi	r2,r2,-128
  803178:	1000021e 	bne	r2,zero,803184 <tick+0x2604>
  80317c:	00800044 	movi	r2,1
  803180:	00000106 	br	803188 <tick+0x2608>
  803184:	0005883a 	mov	r2,zero
  803188:	d0a76785 	stb	r2,-25186(gp)
      g140_e11 =(!((g135||g138)));
  80318c:	d0a76443 	ldbu	r2,-25199(gp)
  803190:	10803fcc 	andi	r2,r2,255
  803194:	1080201c 	xori	r2,r2,128
  803198:	10bfe004 	addi	r2,r2,-128
  80319c:	1000071e 	bne	r2,zero,8031bc <tick+0x263c>
  8031a0:	d0a78a83 	ldbu	r2,-25046(gp)
  8031a4:	10803fcc 	andi	r2,r2,255
  8031a8:	1080201c 	xori	r2,r2,128
  8031ac:	10bfe004 	addi	r2,r2,-128
  8031b0:	1000021e 	bne	r2,zero,8031bc <tick+0x263c>
  8031b4:	00800044 	movi	r2,1
  8031b8:	00000106 	br	8031c0 <tick+0x2640>
  8031bc:	0005883a 	mov	r2,zero
  8031c0:	d0a76685 	stb	r2,-25190(gp)
      g147_e12 =(!((g143||g145)));
  8031c4:	d0a77843 	ldbu	r2,-25119(gp)
  8031c8:	10803fcc 	andi	r2,r2,255
  8031cc:	1080201c 	xori	r2,r2,128
  8031d0:	10bfe004 	addi	r2,r2,-128
  8031d4:	1000071e 	bne	r2,zero,8031f4 <tick+0x2674>
  8031d8:	d0a75f83 	ldbu	r2,-25218(gp)
  8031dc:	10803fcc 	andi	r2,r2,255
  8031e0:	1080201c 	xori	r2,r2,128
  8031e4:	10bfe004 	addi	r2,r2,-128
  8031e8:	1000021e 	bne	r2,zero,8031f4 <tick+0x2674>
  8031ec:	00800044 	movi	r2,1
  8031f0:	00000106 	br	8031f8 <tick+0x2678>
  8031f4:	0005883a 	mov	r2,zero
  8031f8:	d0a78985 	stb	r2,-25050(gp)
      g148_fix0 =((g20_e1||g20)&&(g33_e2||g33)&&(g50_e3||g50)&&(g60_e4||g60));
  8031fc:	d0a7a003 	ldbu	r2,-24960(gp)
  803200:	10803fcc 	andi	r2,r2,255
  803204:	1080201c 	xori	r2,r2,128
  803208:	10bfe004 	addi	r2,r2,-128
  80320c:	1000051e 	bne	r2,zero,803224 <tick+0x26a4>
  803210:	d0a78403 	ldbu	r2,-25072(gp)
  803214:	10803fcc 	andi	r2,r2,255
  803218:	1080201c 	xori	r2,r2,128
  80321c:	10bfe004 	addi	r2,r2,-128
  803220:	10002026 	beq	r2,zero,8032a4 <tick+0x2724>
  803224:	d0a76e03 	ldbu	r2,-25160(gp)
  803228:	10803fcc 	andi	r2,r2,255
  80322c:	1080201c 	xori	r2,r2,128
  803230:	10bfe004 	addi	r2,r2,-128
  803234:	1000051e 	bne	r2,zero,80324c <tick+0x26cc>
  803238:	d0a77f83 	ldbu	r2,-25090(gp)
  80323c:	10803fcc 	andi	r2,r2,255
  803240:	1080201c 	xori	r2,r2,128
  803244:	10bfe004 	addi	r2,r2,-128
  803248:	10001626 	beq	r2,zero,8032a4 <tick+0x2724>
  80324c:	d0a76883 	ldbu	r2,-25182(gp)
  803250:	10803fcc 	andi	r2,r2,255
  803254:	1080201c 	xori	r2,r2,128
  803258:	10bfe004 	addi	r2,r2,-128
  80325c:	1000051e 	bne	r2,zero,803274 <tick+0x26f4>
  803260:	d0a78943 	ldbu	r2,-25051(gp)
  803264:	10803fcc 	andi	r2,r2,255
  803268:	1080201c 	xori	r2,r2,128
  80326c:	10bfe004 	addi	r2,r2,-128
  803270:	10000c26 	beq	r2,zero,8032a4 <tick+0x2724>
  803274:	d0a77683 	ldbu	r2,-25126(gp)
  803278:	10803fcc 	andi	r2,r2,255
  80327c:	1080201c 	xori	r2,r2,128
  803280:	10bfe004 	addi	r2,r2,-128
  803284:	1000051e 	bne	r2,zero,80329c <tick+0x271c>
  803288:	d0a78483 	ldbu	r2,-25070(gp)
  80328c:	10803fcc 	andi	r2,r2,255
  803290:	1080201c 	xori	r2,r2,128
  803294:	10bfe004 	addi	r2,r2,-128
  803298:	10000226 	beq	r2,zero,8032a4 <tick+0x2724>
  80329c:	00800044 	movi	r2,1
  8032a0:	00000106 	br	8032a8 <tick+0x2728>
  8032a4:	0005883a 	mov	r2,zero
  8032a8:	d0a75805 	stb	r2,-25248(gp)
      g148_fix1 =(g148_fix0&&(g76_e5||g76)&&(g102_e6||g102)&&(g110_e7||g110));
  8032ac:	d0a75803 	ldbu	r2,-25248(gp)
  8032b0:	10803fcc 	andi	r2,r2,255
  8032b4:	1080201c 	xori	r2,r2,128
  8032b8:	10bfe004 	addi	r2,r2,-128
  8032bc:	10002026 	beq	r2,zero,803340 <tick+0x27c0>
  8032c0:	d0a78383 	ldbu	r2,-25074(gp)
  8032c4:	10803fcc 	andi	r2,r2,255
  8032c8:	1080201c 	xori	r2,r2,128
  8032cc:	10bfe004 	addi	r2,r2,-128
  8032d0:	1000051e 	bne	r2,zero,8032e8 <tick+0x2768>
  8032d4:	d0a767c3 	ldbu	r2,-25185(gp)
  8032d8:	10803fcc 	andi	r2,r2,255
  8032dc:	1080201c 	xori	r2,r2,128
  8032e0:	10bfe004 	addi	r2,r2,-128
  8032e4:	10001626 	beq	r2,zero,803340 <tick+0x27c0>
  8032e8:	d0a79b43 	ldbu	r2,-24979(gp)
  8032ec:	10803fcc 	andi	r2,r2,255
  8032f0:	1080201c 	xori	r2,r2,128
  8032f4:	10bfe004 	addi	r2,r2,-128
  8032f8:	1000051e 	bne	r2,zero,803310 <tick+0x2790>
  8032fc:	d0a75fc3 	ldbu	r2,-25217(gp)
  803300:	10803fcc 	andi	r2,r2,255
  803304:	1080201c 	xori	r2,r2,128
  803308:	10bfe004 	addi	r2,r2,-128
  80330c:	10000c26 	beq	r2,zero,803340 <tick+0x27c0>
  803310:	d0a7a2c3 	ldbu	r2,-24949(gp)
  803314:	10803fcc 	andi	r2,r2,255
  803318:	1080201c 	xori	r2,r2,128
  80331c:	10bfe004 	addi	r2,r2,-128
  803320:	1000051e 	bne	r2,zero,803338 <tick+0x27b8>
  803324:	d0a77503 	ldbu	r2,-25132(gp)
  803328:	10803fcc 	andi	r2,r2,255
  80332c:	1080201c 	xori	r2,r2,128
  803330:	10bfe004 	addi	r2,r2,-128
  803334:	10000226 	beq	r2,zero,803340 <tick+0x27c0>
  803338:	00800044 	movi	r2,1
  80333c:	00000106 	br	803344 <tick+0x27c4>
  803340:	0005883a 	mov	r2,zero
  803344:	d0a786c5 	stb	r2,-25061(gp)
      g148_fix2 =(g20||g33||g50||g60);
  803348:	d0a78403 	ldbu	r2,-25072(gp)
  80334c:	10803fcc 	andi	r2,r2,255
  803350:	1080201c 	xori	r2,r2,128
  803354:	10bfe004 	addi	r2,r2,-128
  803358:	10000f1e 	bne	r2,zero,803398 <tick+0x2818>
  80335c:	d0a77f83 	ldbu	r2,-25090(gp)
  803360:	10803fcc 	andi	r2,r2,255
  803364:	1080201c 	xori	r2,r2,128
  803368:	10bfe004 	addi	r2,r2,-128
  80336c:	10000a1e 	bne	r2,zero,803398 <tick+0x2818>
  803370:	d0a78943 	ldbu	r2,-25051(gp)
  803374:	10803fcc 	andi	r2,r2,255
  803378:	1080201c 	xori	r2,r2,128
  80337c:	10bfe004 	addi	r2,r2,-128
  803380:	1000051e 	bne	r2,zero,803398 <tick+0x2818>
  803384:	d0a78483 	ldbu	r2,-25070(gp)
  803388:	10803fcc 	andi	r2,r2,255
  80338c:	1080201c 	xori	r2,r2,128
  803390:	10bfe004 	addi	r2,r2,-128
  803394:	10000226 	beq	r2,zero,8033a0 <tick+0x2820>
  803398:	00800044 	movi	r2,1
  80339c:	00000106 	br	8033a4 <tick+0x2824>
  8033a0:	0005883a 	mov	r2,zero
  8033a4:	d0a76b85 	stb	r2,-25170(gp)
      g148_fix3 =(g148_fix2||g76||g102||g110);
  8033a8:	d0a76b83 	ldbu	r2,-25170(gp)
  8033ac:	10803fcc 	andi	r2,r2,255
  8033b0:	1080201c 	xori	r2,r2,128
  8033b4:	10bfe004 	addi	r2,r2,-128
  8033b8:	10000f1e 	bne	r2,zero,8033f8 <tick+0x2878>
  8033bc:	d0a767c3 	ldbu	r2,-25185(gp)
  8033c0:	10803fcc 	andi	r2,r2,255
  8033c4:	1080201c 	xori	r2,r2,128
  8033c8:	10bfe004 	addi	r2,r2,-128
  8033cc:	10000a1e 	bne	r2,zero,8033f8 <tick+0x2878>
  8033d0:	d0a75fc3 	ldbu	r2,-25217(gp)
  8033d4:	10803fcc 	andi	r2,r2,255
  8033d8:	1080201c 	xori	r2,r2,128
  8033dc:	10bfe004 	addi	r2,r2,-128
  8033e0:	1000051e 	bne	r2,zero,8033f8 <tick+0x2878>
  8033e4:	d0a77503 	ldbu	r2,-25132(gp)
  8033e8:	10803fcc 	andi	r2,r2,255
  8033ec:	1080201c 	xori	r2,r2,128
  8033f0:	10bfe004 	addi	r2,r2,-128
  8033f4:	10000226 	beq	r2,zero,803400 <tick+0x2880>
  8033f8:	00800044 	movi	r2,1
  8033fc:	00000106 	br	803404 <tick+0x2884>
  803400:	0005883a 	mov	r2,zero
  803404:	d0a79d05 	stb	r2,-24972(gp)
      g148_e1_fix_fix =(g39||g56||g66||g82||g108||g123||g131||g138||g9||g28||g41||g68||g85||g90);
  803408:	d0a79dc3 	ldbu	r2,-24969(gp)
  80340c:	10803fcc 	andi	r2,r2,255
  803410:	1080201c 	xori	r2,r2,128
  803414:	10bfe004 	addi	r2,r2,-128
  803418:	1000411e 	bne	r2,zero,803520 <tick+0x29a0>
  80341c:	d0a77e43 	ldbu	r2,-25095(gp)
  803420:	10803fcc 	andi	r2,r2,255
  803424:	1080201c 	xori	r2,r2,128
  803428:	10bfe004 	addi	r2,r2,-128
  80342c:	10003c1e 	bne	r2,zero,803520 <tick+0x29a0>
  803430:	d0a77a03 	ldbu	r2,-25112(gp)
  803434:	10803fcc 	andi	r2,r2,255
  803438:	1080201c 	xori	r2,r2,128
  80343c:	10bfe004 	addi	r2,r2,-128
  803440:	1000371e 	bne	r2,zero,803520 <tick+0x29a0>
  803444:	d0a76543 	ldbu	r2,-25195(gp)
  803448:	10803fcc 	andi	r2,r2,255
  80344c:	1080201c 	xori	r2,r2,128
  803450:	10bfe004 	addi	r2,r2,-128
  803454:	1000321e 	bne	r2,zero,803520 <tick+0x29a0>
  803458:	d0a75683 	ldbu	r2,-25254(gp)
  80345c:	10803fcc 	andi	r2,r2,255
  803460:	1080201c 	xori	r2,r2,128
  803464:	10bfe004 	addi	r2,r2,-128
  803468:	10002d1e 	bne	r2,zero,803520 <tick+0x29a0>
  80346c:	d0a76283 	ldbu	r2,-25206(gp)
  803470:	10803fcc 	andi	r2,r2,255
  803474:	1080201c 	xori	r2,r2,128
  803478:	10bfe004 	addi	r2,r2,-128
  80347c:	1000281e 	bne	r2,zero,803520 <tick+0x29a0>
  803480:	d0a77f03 	ldbu	r2,-25092(gp)
  803484:	10803fcc 	andi	r2,r2,255
  803488:	1080201c 	xori	r2,r2,128
  80348c:	10bfe004 	addi	r2,r2,-128
  803490:	1000231e 	bne	r2,zero,803520 <tick+0x29a0>
  803494:	d0a78a83 	ldbu	r2,-25046(gp)
  803498:	10803fcc 	andi	r2,r2,255
  80349c:	1080201c 	xori	r2,r2,128
  8034a0:	10bfe004 	addi	r2,r2,-128
  8034a4:	10001e1e 	bne	r2,zero,803520 <tick+0x29a0>
  8034a8:	d0a75cc3 	ldbu	r2,-25229(gp)
  8034ac:	10803fcc 	andi	r2,r2,255
  8034b0:	1080201c 	xori	r2,r2,128
  8034b4:	10bfe004 	addi	r2,r2,-128
  8034b8:	1000191e 	bne	r2,zero,803520 <tick+0x29a0>
  8034bc:	d0a79843 	ldbu	r2,-24991(gp)
  8034c0:	10803fcc 	andi	r2,r2,255
  8034c4:	1080201c 	xori	r2,r2,128
  8034c8:	10bfe004 	addi	r2,r2,-128
  8034cc:	1000141e 	bne	r2,zero,803520 <tick+0x29a0>
  8034d0:	d0a76983 	ldbu	r2,-25178(gp)
  8034d4:	10803fcc 	andi	r2,r2,255
  8034d8:	1080201c 	xori	r2,r2,128
  8034dc:	10bfe004 	addi	r2,r2,-128
  8034e0:	10000f1e 	bne	r2,zero,803520 <tick+0x29a0>
  8034e4:	d0a79643 	ldbu	r2,-24999(gp)
  8034e8:	10803fcc 	andi	r2,r2,255
  8034ec:	1080201c 	xori	r2,r2,128
  8034f0:	10bfe004 	addi	r2,r2,-128
  8034f4:	10000a1e 	bne	r2,zero,803520 <tick+0x29a0>
  8034f8:	d0a75c03 	ldbu	r2,-25232(gp)
  8034fc:	10803fcc 	andi	r2,r2,255
  803500:	1080201c 	xori	r2,r2,128
  803504:	10bfe004 	addi	r2,r2,-128
  803508:	1000051e 	bne	r2,zero,803520 <tick+0x29a0>
  80350c:	d0a782c3 	ldbu	r2,-25077(gp)
  803510:	10803fcc 	andi	r2,r2,255
  803514:	1080201c 	xori	r2,r2,128
  803518:	10bfe004 	addi	r2,r2,-128
  80351c:	10000226 	beq	r2,zero,803528 <tick+0x29a8>
  803520:	00800044 	movi	r2,1
  803524:	00000106 	br	80352c <tick+0x29ac>
  803528:	0005883a 	mov	r2,zero
  80352c:	d0a77b45 	stb	r2,-25107(gp)
      g148_e1_fix =(g120||g128||g135||g143||g6||g115||g145||g26||g13||g148_e1_fix_fix);
  803530:	d0a79e43 	ldbu	r2,-24967(gp)
  803534:	10803fcc 	andi	r2,r2,255
  803538:	1080201c 	xori	r2,r2,128
  80353c:	10bfe004 	addi	r2,r2,-128
  803540:	10002d1e 	bne	r2,zero,8035f8 <tick+0x2a78>
  803544:	d0a77783 	ldbu	r2,-25122(gp)
  803548:	10803fcc 	andi	r2,r2,255
  80354c:	1080201c 	xori	r2,r2,128
  803550:	10bfe004 	addi	r2,r2,-128
  803554:	1000281e 	bne	r2,zero,8035f8 <tick+0x2a78>
  803558:	d0a76443 	ldbu	r2,-25199(gp)
  80355c:	10803fcc 	andi	r2,r2,255
  803560:	1080201c 	xori	r2,r2,128
  803564:	10bfe004 	addi	r2,r2,-128
  803568:	1000231e 	bne	r2,zero,8035f8 <tick+0x2a78>
  80356c:	d0a77843 	ldbu	r2,-25119(gp)
  803570:	10803fcc 	andi	r2,r2,255
  803574:	1080201c 	xori	r2,r2,128
  803578:	10bfe004 	addi	r2,r2,-128
  80357c:	10001e1e 	bne	r2,zero,8035f8 <tick+0x2a78>
  803580:	d0a78fc3 	ldbu	r2,-25025(gp)
  803584:	10803fcc 	andi	r2,r2,255
  803588:	1080201c 	xori	r2,r2,128
  80358c:	10bfe004 	addi	r2,r2,-128
  803590:	1000191e 	bne	r2,zero,8035f8 <tick+0x2a78>
  803594:	d0a76083 	ldbu	r2,-25214(gp)
  803598:	10803fcc 	andi	r2,r2,255
  80359c:	1080201c 	xori	r2,r2,128
  8035a0:	10bfe004 	addi	r2,r2,-128
  8035a4:	1000141e 	bne	r2,zero,8035f8 <tick+0x2a78>
  8035a8:	d0a75f83 	ldbu	r2,-25218(gp)
  8035ac:	10803fcc 	andi	r2,r2,255
  8035b0:	1080201c 	xori	r2,r2,128
  8035b4:	10bfe004 	addi	r2,r2,-128
  8035b8:	10000f1e 	bne	r2,zero,8035f8 <tick+0x2a78>
  8035bc:	d0a7a283 	ldbu	r2,-24950(gp)
  8035c0:	10803fcc 	andi	r2,r2,255
  8035c4:	1080201c 	xori	r2,r2,128
  8035c8:	10bfe004 	addi	r2,r2,-128
  8035cc:	10000a1e 	bne	r2,zero,8035f8 <tick+0x2a78>
  8035d0:	d0a78c83 	ldbu	r2,-25038(gp)
  8035d4:	10803fcc 	andi	r2,r2,255
  8035d8:	1080201c 	xori	r2,r2,128
  8035dc:	10bfe004 	addi	r2,r2,-128
  8035e0:	1000051e 	bne	r2,zero,8035f8 <tick+0x2a78>
  8035e4:	d0a77b43 	ldbu	r2,-25107(gp)
  8035e8:	10803fcc 	andi	r2,r2,255
  8035ec:	1080201c 	xori	r2,r2,128
  8035f0:	10bfe004 	addi	r2,r2,-128
  8035f4:	10000226 	beq	r2,zero,803600 <tick+0x2a80>
  8035f8:	00800044 	movi	r2,1
  8035fc:	00000106 	br	803604 <tick+0x2a84>
  803600:	0005883a 	mov	r2,zero
  803604:	d0a766c5 	stb	r2,-25189(gp)
      g148_e1 =(!((g4||g23||g36||g53||g63||g79||g105||g113||g94||g148_e1_fix)));
  803608:	d0a75643 	ldbu	r2,-25255(gp)
  80360c:	10803fcc 	andi	r2,r2,255
  803610:	1080201c 	xori	r2,r2,128
  803614:	10bfe004 	addi	r2,r2,-128
  803618:	10002f1e 	bne	r2,zero,8036d8 <tick+0x2b58>
  80361c:	d0a77a43 	ldbu	r2,-25111(gp)
  803620:	10803fcc 	andi	r2,r2,255
  803624:	1080201c 	xori	r2,r2,128
  803628:	10bfe004 	addi	r2,r2,-128
  80362c:	10002a1e 	bne	r2,zero,8036d8 <tick+0x2b58>
  803630:	d0a78743 	ldbu	r2,-25059(gp)
  803634:	10803fcc 	andi	r2,r2,255
  803638:	1080201c 	xori	r2,r2,128
  80363c:	10bfe004 	addi	r2,r2,-128
  803640:	1000251e 	bne	r2,zero,8036d8 <tick+0x2b58>
  803644:	d0a78d03 	ldbu	r2,-25036(gp)
  803648:	10803fcc 	andi	r2,r2,255
  80364c:	1080201c 	xori	r2,r2,128
  803650:	10bfe004 	addi	r2,r2,-128
  803654:	1000201e 	bne	r2,zero,8036d8 <tick+0x2b58>
  803658:	d0a783c3 	ldbu	r2,-25073(gp)
  80365c:	10803fcc 	andi	r2,r2,255
  803660:	1080201c 	xori	r2,r2,128
  803664:	10bfe004 	addi	r2,r2,-128
  803668:	10001b1e 	bne	r2,zero,8036d8 <tick+0x2b58>
  80366c:	d0a773c3 	ldbu	r2,-25137(gp)
  803670:	10803fcc 	andi	r2,r2,255
  803674:	1080201c 	xori	r2,r2,128
  803678:	10bfe004 	addi	r2,r2,-128
  80367c:	1000161e 	bne	r2,zero,8036d8 <tick+0x2b58>
  803680:	d0a76ec3 	ldbu	r2,-25157(gp)
  803684:	10803fcc 	andi	r2,r2,255
  803688:	1080201c 	xori	r2,r2,128
  80368c:	10bfe004 	addi	r2,r2,-128
  803690:	1000111e 	bne	r2,zero,8036d8 <tick+0x2b58>
  803694:	d0a78b43 	ldbu	r2,-25043(gp)
  803698:	10803fcc 	andi	r2,r2,255
  80369c:	1080201c 	xori	r2,r2,128
  8036a0:	10bfe004 	addi	r2,r2,-128
  8036a4:	10000c1e 	bne	r2,zero,8036d8 <tick+0x2b58>
  8036a8:	d0a77483 	ldbu	r2,-25134(gp)
  8036ac:	10803fcc 	andi	r2,r2,255
  8036b0:	1080201c 	xori	r2,r2,128
  8036b4:	10bfe004 	addi	r2,r2,-128
  8036b8:	1000071e 	bne	r2,zero,8036d8 <tick+0x2b58>
  8036bc:	d0a766c3 	ldbu	r2,-25189(gp)
  8036c0:	10803fcc 	andi	r2,r2,255
  8036c4:	1080201c 	xori	r2,r2,128
  8036c8:	10bfe004 	addi	r2,r2,-128
  8036cc:	1000021e 	bne	r2,zero,8036d8 <tick+0x2b58>
  8036d0:	00800044 	movi	r2,1
  8036d4:	00000106 	br	8036dc <tick+0x2b5c>
  8036d8:	0005883a 	mov	r2,zero
  8036dc:	d0a79805 	stb	r2,-24992(gp)
      g152_e2 =(!(g151));
  8036e0:	d0a774c3 	ldbu	r2,-25133(gp)
  8036e4:	10803fcc 	andi	r2,r2,255
  8036e8:	1080201c 	xori	r2,r2,128
  8036ec:	10bfe004 	addi	r2,r2,-128
  8036f0:	1005003a 	cmpeq	r2,r2,zero
  8036f4:	d0a759c5 	stb	r2,-25241(gp)
   }
   PRE_g3 = g3;
  8036f8:	d0a75a83 	ldbu	r2,-25238(gp)
  8036fc:	d0a75f45 	stb	r2,-25219(gp)
   PRE_g5 = g5;
  803700:	d0a77443 	ldbu	r2,-25135(gp)
  803704:	d0a79c85 	stb	r2,-24974(gp)
   PRE_g8 = g8;
  803708:	d0a78d43 	ldbu	r2,-25035(gp)
  80370c:	d0a76ac5 	stb	r2,-25173(gp)
   PRE_g12 = g12;
  803710:	d0a765c3 	ldbu	r2,-25193(gp)
  803714:	d0a77345 	stb	r2,-25139(gp)
   PRE_g22 = g22;
  803718:	d0a797c3 	ldbu	r2,-24993(gp)
  80371c:	d0a780c5 	stb	r2,-25085(gp)
   PRE_g25 = g25;
  803720:	d0a79683 	ldbu	r2,-24998(gp)
  803724:	d0a77745 	stb	r2,-25123(gp)
   PRE_g27 = g27;
  803728:	d0a75943 	ldbu	r2,-25243(gp)
  80372c:	d0a75b85 	stb	r2,-25234(gp)
   PRE_g35 = g35;
  803730:	d0a78203 	ldbu	r2,-25080(gp)
  803734:	d0a76d45 	stb	r2,-25163(gp)
   PRE_g38 = g38;
  803738:	d0a76e43 	ldbu	r2,-25159(gp)
  80373c:	d0a75785 	stb	r2,-25250(gp)
   PRE_g40 = g40;
  803740:	d0a75543 	ldbu	r2,-25259(gp)
  803744:	d0a76a45 	stb	r2,-25175(gp)
   PRE_g52 = g52;
  803748:	d0a76643 	ldbu	r2,-25191(gp)
  80374c:	d0a77e85 	stb	r2,-25094(gp)
   PRE_g55 = g55;
  803750:	d0a75883 	ldbu	r2,-25246(gp)
  803754:	d0a77305 	stb	r2,-25140(gp)
   PRE_g62 = g62;
  803758:	d0a768c3 	ldbu	r2,-25181(gp)
  80375c:	d0a78705 	stb	r2,-25060(gp)
   PRE_g65 = g65;
  803760:	d0a79783 	ldbu	r2,-24994(gp)
  803764:	d0a76305 	stb	r2,-25204(gp)
   PRE_g67 = g67;
  803768:	d0a79f43 	ldbu	r2,-24963(gp)
  80376c:	d0a78085 	stb	r2,-25086(gp)
   PRE_g78 = g78;
  803770:	d0a77f43 	ldbu	r2,-25091(gp)
  803774:	d0a76d05 	stb	r2,-25164(gp)
   PRE_g81 = g81;
  803778:	d0a790c3 	ldbu	r2,-25021(gp)
  80377c:	d0a76b45 	stb	r2,-25171(gp)
   PRE_g84 = g84;
  803780:	d0a76943 	ldbu	r2,-25179(gp)
  803784:	d0a77bc5 	stb	r2,-25105(gp)
   PRE_g89 = g89;
  803788:	d0a78783 	ldbu	r2,-25058(gp)
  80378c:	d0a78dc5 	stb	r2,-25033(gp)
   PRE_g93 = g93;
  803790:	d0a785c3 	ldbu	r2,-25065(gp)
  803794:	d0a796c5 	stb	r2,-24997(gp)
   PRE_g104 = g104;
  803798:	d0a78c03 	ldbu	r2,-25040(gp)
  80379c:	d0a76bc5 	stb	r2,-25169(gp)
   PRE_g107 = g107;
  8037a0:	d0a78b03 	ldbu	r2,-25044(gp)
  8037a4:	d0a784c5 	stb	r2,-25069(gp)
   PRE_g112 = g112;
  8037a8:	d0a75a43 	ldbu	r2,-25239(gp)
  8037ac:	d0a755c5 	stb	r2,-25257(gp)
   PRE_g114 = g114;
  8037b0:	d0a77e03 	ldbu	r2,-25096(gp)
  8037b4:	d0a75c85 	stb	r2,-25230(gp)
   PRE_g119 = g119;
  8037b8:	d0a78603 	ldbu	r2,-25064(gp)
  8037bc:	d0a77fc5 	stb	r2,-25089(gp)
   PRE_g122 = g122;
  8037c0:	d0a78003 	ldbu	r2,-25088(gp)
  8037c4:	d0a757c5 	stb	r2,-25249(gp)
   PRE_g127 = g127;
  8037c8:	d0a75d03 	ldbu	r2,-25228(gp)
  8037cc:	d0a79bc5 	stb	r2,-24977(gp)
   PRE_g130 = g130;
  8037d0:	d0a79c03 	ldbu	r2,-24976(gp)
  8037d4:	d0a78c45 	stb	r2,-25039(gp)
   PRE_g134 = g134;
  8037d8:	d0a78183 	ldbu	r2,-25082(gp)
  8037dc:	d0a75845 	stb	r2,-25247(gp)
   PRE_g137 = g137;
  8037e0:	d0a79283 	ldbu	r2,-25014(gp)
  8037e4:	d0a788c5 	stb	r2,-25053(gp)
   PRE_g142 = g142;
  8037e8:	d0a79703 	ldbu	r2,-24996(gp)
  8037ec:	d0a75f05 	stb	r2,-25220(gp)
   PRE_g144 = g144;
  8037f0:	d0a77d03 	ldbu	r2,-25100(gp)
  8037f4:	d0a76f85 	stb	r2,-25154(gp)
   PRE_g150 = g150;
  8037f8:	d0a76203 	ldbu	r2,-25208(gp)
  8037fc:	d0a791c5 	stb	r2,-25017(gp)
   _PRE_GO = _GO;
  803800:	d0a78303 	ldbu	r2,-25076(gp)
  803804:	10803fcc 	andi	r2,r2,255
  803808:	1080201c 	xori	r2,r2,128
  80380c:	10bfe004 	addi	r2,r2,-128
  803810:	d0a75e15 	stw	r2,-25224(gp)
   return;
  803814:	0001883a 	nop
}
  803818:	e037883a 	mov	sp,fp
  80381c:	df000017 	ldw	fp,0(sp)
  803820:	dec00104 	addi	sp,sp,4
  803824:	f800283a 	ret

00803828 <_fopen_r>:
  803828:	defffa04 	addi	sp,sp,-24
  80382c:	3005883a 	mov	r2,r6
  803830:	dcc00415 	stw	r19,16(sp)
  803834:	d80d883a 	mov	r6,sp
  803838:	2827883a 	mov	r19,r5
  80383c:	100b883a 	mov	r5,r2
  803840:	dc800315 	stw	r18,12(sp)
  803844:	dfc00515 	stw	ra,20(sp)
  803848:	dc400215 	stw	r17,8(sp)
  80384c:	dc000115 	stw	r16,4(sp)
  803850:	2025883a 	mov	r18,r4
  803854:	08093600 	call	809360 <__sflags>
  803858:	10002726 	beq	r2,zero,8038f8 <_fopen_r+0xd0>
  80385c:	9009883a 	mov	r4,r18
  803860:	1023883a 	mov	r17,r2
  803864:	08091e00 	call	8091e0 <__sfp>
  803868:	1021883a 	mov	r16,r2
  80386c:	10002226 	beq	r2,zero,8038f8 <_fopen_r+0xd0>
  803870:	d9800017 	ldw	r6,0(sp)
  803874:	01c06d84 	movi	r7,438
  803878:	980b883a 	mov	r5,r19
  80387c:	9009883a 	mov	r4,r18
  803880:	0804a000 	call	804a00 <_open_r>
  803884:	10001916 	blt	r2,zero,8038ec <_fopen_r+0xc4>
  803888:	8080038d 	sth	r2,14(r16)
  80388c:	00802034 	movhi	r2,128
  803890:	10937904 	addi	r2,r2,19940
  803894:	80800815 	stw	r2,32(r16)
  803898:	00802034 	movhi	r2,128
  80389c:	10939004 	addi	r2,r2,20032
  8038a0:	80800915 	stw	r2,36(r16)
  8038a4:	00802034 	movhi	r2,128
  8038a8:	1093af04 	addi	r2,r2,20156
  8038ac:	80800a15 	stw	r2,40(r16)
  8038b0:	00802034 	movhi	r2,128
  8038b4:	1093c604 	addi	r2,r2,20248
  8038b8:	8440030d 	sth	r17,12(r16)
  8038bc:	84000715 	stw	r16,28(r16)
  8038c0:	80800b15 	stw	r2,44(r16)
  8038c4:	8c40400c 	andi	r17,r17,256
  8038c8:	88000d1e 	bne	r17,zero,803900 <_fopen_r+0xd8>
  8038cc:	8005883a 	mov	r2,r16
  8038d0:	dfc00517 	ldw	ra,20(sp)
  8038d4:	dcc00417 	ldw	r19,16(sp)
  8038d8:	dc800317 	ldw	r18,12(sp)
  8038dc:	dc400217 	ldw	r17,8(sp)
  8038e0:	dc000117 	ldw	r16,4(sp)
  8038e4:	dec00604 	addi	sp,sp,24
  8038e8:	f800283a 	ret
  8038ec:	08093200 	call	809320 <__sfp_lock_acquire>
  8038f0:	8000030d 	sth	zero,12(r16)
  8038f4:	08093240 	call	809324 <__sfp_lock_release>
  8038f8:	0005883a 	mov	r2,zero
  8038fc:	003ff406 	br	8038d0 <__alt_mem_onchip_mem+0xff7838d0>
  803900:	01c00084 	movi	r7,2
  803904:	000d883a 	mov	r6,zero
  803908:	800b883a 	mov	r5,r16
  80390c:	9009883a 	mov	r4,r18
  803910:	08039340 	call	803934 <_fseek_r>
  803914:	8005883a 	mov	r2,r16
  803918:	003fed06 	br	8038d0 <__alt_mem_onchip_mem+0xff7838d0>

0080391c <fopen>:
  80391c:	00802074 	movhi	r2,129
  803920:	109c3a04 	addi	r2,r2,28904
  803924:	280d883a 	mov	r6,r5
  803928:	200b883a 	mov	r5,r4
  80392c:	11000017 	ldw	r4,0(r2)
  803930:	08038281 	jmpi	803828 <_fopen_r>

00803934 <_fseek_r>:
  803934:	08039541 	jmpi	803954 <_fseeko_r>

00803938 <fseek>:
  803938:	00802074 	movhi	r2,129
  80393c:	109c3a04 	addi	r2,r2,28904
  803940:	300f883a 	mov	r7,r6
  803944:	280d883a 	mov	r6,r5
  803948:	200b883a 	mov	r5,r4
  80394c:	11000017 	ldw	r4,0(r2)
  803950:	08039541 	jmpi	803954 <_fseeko_r>

00803954 <_fseeko_r>:
  803954:	deffe804 	addi	sp,sp,-96
  803958:	dd401415 	stw	r21,80(sp)
  80395c:	dc801115 	stw	r18,68(sp)
  803960:	dc401015 	stw	r17,64(sp)
  803964:	dc000f15 	stw	r16,60(sp)
  803968:	dfc01715 	stw	ra,92(sp)
  80396c:	ddc01615 	stw	r23,88(sp)
  803970:	dd801515 	stw	r22,84(sp)
  803974:	dd001315 	stw	r20,76(sp)
  803978:	dcc01215 	stw	r19,72(sp)
  80397c:	2023883a 	mov	r17,r4
  803980:	2821883a 	mov	r16,r5
  803984:	302b883a 	mov	r21,r6
  803988:	3825883a 	mov	r18,r7
  80398c:	20000226 	beq	r4,zero,803998 <_fseeko_r+0x44>
  803990:	20800e17 	ldw	r2,56(r4)
  803994:	10005a26 	beq	r2,zero,803b00 <_fseeko_r+0x1ac>
  803998:	8080030b 	ldhu	r2,12(r16)
  80399c:	00c04204 	movi	r3,264
  8039a0:	1080420c 	andi	r2,r2,264
  8039a4:	10c05b26 	beq	r2,r3,803b14 <_fseeko_r+0x1c0>
  8039a8:	85000a17 	ldw	r20,40(r16)
  8039ac:	a000f626 	beq	r20,zero,803d88 <_fseeko_r+0x434>
  8039b0:	00800044 	movi	r2,1
  8039b4:	90803e26 	beq	r18,r2,803ab0 <_fseeko_r+0x15c>
  8039b8:	00800084 	movi	r2,2
  8039bc:	90801026 	beq	r18,r2,803a00 <_fseeko_r+0xac>
  8039c0:	90000f26 	beq	r18,zero,803a00 <_fseeko_r+0xac>
  8039c4:	00800584 	movi	r2,22
  8039c8:	88800015 	stw	r2,0(r17)
  8039cc:	04ffffc4 	movi	r19,-1
  8039d0:	9805883a 	mov	r2,r19
  8039d4:	dfc01717 	ldw	ra,92(sp)
  8039d8:	ddc01617 	ldw	r23,88(sp)
  8039dc:	dd801517 	ldw	r22,84(sp)
  8039e0:	dd401417 	ldw	r21,80(sp)
  8039e4:	dd001317 	ldw	r20,76(sp)
  8039e8:	dcc01217 	ldw	r19,72(sp)
  8039ec:	dc801117 	ldw	r18,68(sp)
  8039f0:	dc401017 	ldw	r17,64(sp)
  8039f4:	dc000f17 	ldw	r16,60(sp)
  8039f8:	dec01804 	addi	sp,sp,96
  8039fc:	f800283a 	ret
  803a00:	80800417 	ldw	r2,16(r16)
  803a04:	002f883a 	mov	r23,zero
  803a08:	0027883a 	mov	r19,zero
  803a0c:	1000cb26 	beq	r2,zero,803d3c <_fseeko_r+0x3e8>
  803a10:	8080030b 	ldhu	r2,12(r16)
  803a14:	10c2068c 	andi	r3,r2,2074
  803a18:	1800071e 	bne	r3,zero,803a38 <_fseeko_r+0xe4>
  803a1c:	10c1000c 	andi	r3,r2,1024
  803a20:	1800451e 	bne	r3,zero,803b38 <_fseeko_r+0x1e4>
  803a24:	00c02034 	movhi	r3,128
  803a28:	18d3af04 	addi	r3,r3,20156
  803a2c:	a0c0b726 	beq	r20,r3,803d0c <_fseeko_r+0x3b8>
  803a30:	10820014 	ori	r2,r2,2048
  803a34:	8080030d 	sth	r2,12(r16)
  803a38:	800b883a 	mov	r5,r16
  803a3c:	8809883a 	mov	r4,r17
  803a40:	0808f340 	call	808f34 <_fflush_r>
  803a44:	1027883a 	mov	r19,r2
  803a48:	103fe01e 	bne	r2,zero,8039cc <__alt_mem_onchip_mem+0xff7839cc>
  803a4c:	81400717 	ldw	r5,28(r16)
  803a50:	900f883a 	mov	r7,r18
  803a54:	a80d883a 	mov	r6,r21
  803a58:	8809883a 	mov	r4,r17
  803a5c:	a03ee83a 	callr	r20
  803a60:	00ffffc4 	movi	r3,-1
  803a64:	10ffd926 	beq	r2,r3,8039cc <__alt_mem_onchip_mem+0xff7839cc>
  803a68:	81400c17 	ldw	r5,48(r16)
  803a6c:	28000526 	beq	r5,zero,803a84 <_fseeko_r+0x130>
  803a70:	80801004 	addi	r2,r16,64
  803a74:	28800226 	beq	r5,r2,803a80 <_fseeko_r+0x12c>
  803a78:	8809883a 	mov	r4,r17
  803a7c:	08095300 	call	809530 <_free_r>
  803a80:	80000c15 	stw	zero,48(r16)
  803a84:	8080030b 	ldhu	r2,12(r16)
  803a88:	80c00417 	ldw	r3,16(r16)
  803a8c:	80000115 	stw	zero,4(r16)
  803a90:	10bdf7cc 	andi	r2,r2,63455
  803a94:	80c00015 	stw	r3,0(r16)
  803a98:	8080030d 	sth	r2,12(r16)
  803a9c:	01800204 	movi	r6,8
  803aa0:	000b883a 	mov	r5,zero
  803aa4:	81001704 	addi	r4,r16,92
  803aa8:	08048d80 	call	8048d8 <memset>
  803aac:	003fc806 	br	8039d0 <__alt_mem_onchip_mem+0xff7839d0>
  803ab0:	800b883a 	mov	r5,r16
  803ab4:	8809883a 	mov	r4,r17
  803ab8:	0808f340 	call	808f34 <_fflush_r>
  803abc:	8080030b 	ldhu	r2,12(r16)
  803ac0:	10c4000c 	andi	r3,r2,4096
  803ac4:	18008726 	beq	r3,zero,803ce4 <_fseeko_r+0x390>
  803ac8:	84c01417 	ldw	r19,80(r16)
  803acc:	10c0010c 	andi	r3,r2,4
  803ad0:	1800431e 	bne	r3,zero,803be0 <_fseeko_r+0x28c>
  803ad4:	1080020c 	andi	r2,r2,8
  803ad8:	10008026 	beq	r2,zero,803cdc <_fseeko_r+0x388>
  803adc:	80c00017 	ldw	r3,0(r16)
  803ae0:	80800417 	ldw	r2,16(r16)
  803ae4:	18000226 	beq	r3,zero,803af0 <_fseeko_r+0x19c>
  803ae8:	1887c83a 	sub	r3,r3,r2
  803aec:	98e7883a 	add	r19,r19,r3
  803af0:	aceb883a 	add	r21,r21,r19
  803af4:	05c00044 	movi	r23,1
  803af8:	0025883a 	mov	r18,zero
  803afc:	003fc306 	br	803a0c <__alt_mem_onchip_mem+0xff783a0c>
  803b00:	08093100 	call	809310 <__sinit>
  803b04:	8080030b 	ldhu	r2,12(r16)
  803b08:	00c04204 	movi	r3,264
  803b0c:	1080420c 	andi	r2,r2,264
  803b10:	10ffa51e 	bne	r2,r3,8039a8 <__alt_mem_onchip_mem+0xff7839a8>
  803b14:	800b883a 	mov	r5,r16
  803b18:	8809883a 	mov	r4,r17
  803b1c:	0808f340 	call	808f34 <_fflush_r>
  803b20:	003fa106 	br	8039a8 <__alt_mem_onchip_mem+0xff7839a8>
  803b24:	8080030b 	ldhu	r2,12(r16)
  803b28:	00c10004 	movi	r3,1024
  803b2c:	80c01315 	stw	r3,76(r16)
  803b30:	10c4b03a 	or	r2,r2,r3
  803b34:	8080030d 	sth	r2,12(r16)
  803b38:	9000311e 	bne	r18,zero,803c00 <_fseeko_r+0x2ac>
  803b3c:	a82d883a 	mov	r22,r21
  803b40:	b800371e 	bne	r23,zero,803c20 <_fseeko_r+0x2cc>
  803b44:	8080030b 	ldhu	r2,12(r16)
  803b48:	1084000c 	andi	r2,r2,4096
  803b4c:	10007f26 	beq	r2,zero,803d4c <_fseeko_r+0x3f8>
  803b50:	80801417 	ldw	r2,80(r16)
  803b54:	81800117 	ldw	r6,4(r16)
  803b58:	81400c17 	ldw	r5,48(r16)
  803b5c:	11a7c83a 	sub	r19,r2,r6
  803b60:	28008226 	beq	r5,zero,803d6c <_fseeko_r+0x418>
  803b64:	81c00f17 	ldw	r7,60(r16)
  803b68:	99e7c83a 	sub	r19,r19,r7
  803b6c:	81000e17 	ldw	r4,56(r16)
  803b70:	80800417 	ldw	r2,16(r16)
  803b74:	99a7883a 	add	r19,r19,r6
  803b78:	2087c83a 	sub	r3,r4,r2
  803b7c:	98e7c83a 	sub	r19,r19,r3
  803b80:	38c7883a 	add	r3,r7,r3
  803b84:	b4c02b16 	blt	r22,r19,803c34 <_fseeko_r+0x2e0>
  803b88:	98c9883a 	add	r4,r19,r3
  803b8c:	b100292e 	bgeu	r22,r4,803c34 <_fseeko_r+0x2e0>
  803b90:	b4e7c83a 	sub	r19,r22,r19
  803b94:	14c5883a 	add	r2,r2,r19
  803b98:	1ce7c83a 	sub	r19,r3,r19
  803b9c:	80800015 	stw	r2,0(r16)
  803ba0:	84c00115 	stw	r19,4(r16)
  803ba4:	28000526 	beq	r5,zero,803bbc <_fseeko_r+0x268>
  803ba8:	80801004 	addi	r2,r16,64
  803bac:	28800226 	beq	r5,r2,803bb8 <_fseeko_r+0x264>
  803bb0:	8809883a 	mov	r4,r17
  803bb4:	08095300 	call	809530 <_free_r>
  803bb8:	80000c15 	stw	zero,48(r16)
  803bbc:	8080030b 	ldhu	r2,12(r16)
  803bc0:	01800204 	movi	r6,8
  803bc4:	000b883a 	mov	r5,zero
  803bc8:	10bff7cc 	andi	r2,r2,65503
  803bcc:	8080030d 	sth	r2,12(r16)
  803bd0:	81001704 	addi	r4,r16,92
  803bd4:	08048d80 	call	8048d8 <memset>
  803bd8:	0027883a 	mov	r19,zero
  803bdc:	003f7c06 	br	8039d0 <__alt_mem_onchip_mem+0xff7839d0>
  803be0:	80c00117 	ldw	r3,4(r16)
  803be4:	80800c17 	ldw	r2,48(r16)
  803be8:	98e7c83a 	sub	r19,r19,r3
  803bec:	10003b26 	beq	r2,zero,803cdc <_fseeko_r+0x388>
  803bf0:	80c00f17 	ldw	r3,60(r16)
  803bf4:	80800417 	ldw	r2,16(r16)
  803bf8:	98e7c83a 	sub	r19,r19,r3
  803bfc:	003fbc06 	br	803af0 <__alt_mem_onchip_mem+0xff783af0>
  803c00:	8140038f 	ldh	r5,14(r16)
  803c04:	d80d883a 	mov	r6,sp
  803c08:	8809883a 	mov	r4,r17
  803c0c:	0803db40 	call	803db4 <_fstat_r>
  803c10:	103f891e 	bne	r2,zero,803a38 <__alt_mem_onchip_mem+0xff783a38>
  803c14:	dd800417 	ldw	r22,16(sp)
  803c18:	adad883a 	add	r22,r21,r22
  803c1c:	b83fc926 	beq	r23,zero,803b44 <__alt_mem_onchip_mem+0xff783b44>
  803c20:	81400c17 	ldw	r5,48(r16)
  803c24:	81800117 	ldw	r6,4(r16)
  803c28:	28005026 	beq	r5,zero,803d6c <_fseeko_r+0x418>
  803c2c:	81c00f17 	ldw	r7,60(r16)
  803c30:	003fce06 	br	803b6c <__alt_mem_onchip_mem+0xff783b6c>
  803c34:	84c01317 	ldw	r19,76(r16)
  803c38:	81400717 	ldw	r5,28(r16)
  803c3c:	000f883a 	mov	r7,zero
  803c40:	04e7c83a 	sub	r19,zero,r19
  803c44:	9da6703a 	and	r19,r19,r22
  803c48:	980d883a 	mov	r6,r19
  803c4c:	8809883a 	mov	r4,r17
  803c50:	a03ee83a 	callr	r20
  803c54:	00ffffc4 	movi	r3,-1
  803c58:	10ff7726 	beq	r2,r3,803a38 <__alt_mem_onchip_mem+0xff783a38>
  803c5c:	80800417 	ldw	r2,16(r16)
  803c60:	81400c17 	ldw	r5,48(r16)
  803c64:	80000115 	stw	zero,4(r16)
  803c68:	80800015 	stw	r2,0(r16)
  803c6c:	28000526 	beq	r5,zero,803c84 <_fseeko_r+0x330>
  803c70:	80801004 	addi	r2,r16,64
  803c74:	28800226 	beq	r5,r2,803c80 <_fseeko_r+0x32c>
  803c78:	8809883a 	mov	r4,r17
  803c7c:	08095300 	call	809530 <_free_r>
  803c80:	80000c15 	stw	zero,48(r16)
  803c84:	8080030b 	ldhu	r2,12(r16)
  803c88:	b4e7c83a 	sub	r19,r22,r19
  803c8c:	10bff7cc 	andi	r2,r2,65503
  803c90:	8080030d 	sth	r2,12(r16)
  803c94:	98000b26 	beq	r19,zero,803cc4 <_fseeko_r+0x370>
  803c98:	800b883a 	mov	r5,r16
  803c9c:	8809883a 	mov	r4,r17
  803ca0:	0804bbc0 	call	804bbc <__srefill_r>
  803ca4:	103f641e 	bne	r2,zero,803a38 <__alt_mem_onchip_mem+0xff783a38>
  803ca8:	80800117 	ldw	r2,4(r16)
  803cac:	14ff6236 	bltu	r2,r19,803a38 <__alt_mem_onchip_mem+0xff783a38>
  803cb0:	80c00017 	ldw	r3,0(r16)
  803cb4:	14c5c83a 	sub	r2,r2,r19
  803cb8:	80800115 	stw	r2,4(r16)
  803cbc:	1ce7883a 	add	r19,r3,r19
  803cc0:	84c00015 	stw	r19,0(r16)
  803cc4:	01800204 	movi	r6,8
  803cc8:	000b883a 	mov	r5,zero
  803ccc:	81001704 	addi	r4,r16,92
  803cd0:	08048d80 	call	8048d8 <memset>
  803cd4:	0027883a 	mov	r19,zero
  803cd8:	003f3d06 	br	8039d0 <__alt_mem_onchip_mem+0xff7839d0>
  803cdc:	80800417 	ldw	r2,16(r16)
  803ce0:	003f8306 	br	803af0 <__alt_mem_onchip_mem+0xff783af0>
  803ce4:	81400717 	ldw	r5,28(r16)
  803ce8:	900f883a 	mov	r7,r18
  803cec:	000d883a 	mov	r6,zero
  803cf0:	8809883a 	mov	r4,r17
  803cf4:	a03ee83a 	callr	r20
  803cf8:	1027883a 	mov	r19,r2
  803cfc:	00bfffc4 	movi	r2,-1
  803d00:	98bf3226 	beq	r19,r2,8039cc <__alt_mem_onchip_mem+0xff7839cc>
  803d04:	8080030b 	ldhu	r2,12(r16)
  803d08:	003f7006 	br	803acc <__alt_mem_onchip_mem+0xff783acc>
  803d0c:	8140038f 	ldh	r5,14(r16)
  803d10:	283f4716 	blt	r5,zero,803a30 <__alt_mem_onchip_mem+0xff783a30>
  803d14:	d80d883a 	mov	r6,sp
  803d18:	8809883a 	mov	r4,r17
  803d1c:	0803db40 	call	803db4 <_fstat_r>
  803d20:	1000041e 	bne	r2,zero,803d34 <_fseeko_r+0x3e0>
  803d24:	d8800117 	ldw	r2,4(sp)
  803d28:	00e00014 	movui	r3,32768
  803d2c:	10bc000c 	andi	r2,r2,61440
  803d30:	10ff7c26 	beq	r2,r3,803b24 <__alt_mem_onchip_mem+0xff783b24>
  803d34:	8080030b 	ldhu	r2,12(r16)
  803d38:	003f3d06 	br	803a30 <__alt_mem_onchip_mem+0xff783a30>
  803d3c:	800b883a 	mov	r5,r16
  803d40:	8809883a 	mov	r4,r17
  803d44:	0803f100 	call	803f10 <__smakebuf_r>
  803d48:	003f3106 	br	803a10 <__alt_mem_onchip_mem+0xff783a10>
  803d4c:	81400717 	ldw	r5,28(r16)
  803d50:	01c00044 	movi	r7,1
  803d54:	000d883a 	mov	r6,zero
  803d58:	8809883a 	mov	r4,r17
  803d5c:	a03ee83a 	callr	r20
  803d60:	00ffffc4 	movi	r3,-1
  803d64:	10ff7b1e 	bne	r2,r3,803b54 <__alt_mem_onchip_mem+0xff783b54>
  803d68:	003f3306 	br	803a38 <__alt_mem_onchip_mem+0xff783a38>
  803d6c:	80c00017 	ldw	r3,0(r16)
  803d70:	80800417 	ldw	r2,16(r16)
  803d74:	000b883a 	mov	r5,zero
  803d78:	1887c83a 	sub	r3,r3,r2
  803d7c:	98e7c83a 	sub	r19,r19,r3
  803d80:	30c7883a 	add	r3,r6,r3
  803d84:	003f7f06 	br	803b84 <__alt_mem_onchip_mem+0xff783b84>
  803d88:	00800744 	movi	r2,29
  803d8c:	88800015 	stw	r2,0(r17)
  803d90:	04ffffc4 	movi	r19,-1
  803d94:	003f0e06 	br	8039d0 <__alt_mem_onchip_mem+0xff7839d0>

00803d98 <fseeko>:
  803d98:	00802074 	movhi	r2,129
  803d9c:	109c3a04 	addi	r2,r2,28904
  803da0:	300f883a 	mov	r7,r6
  803da4:	280d883a 	mov	r6,r5
  803da8:	200b883a 	mov	r5,r4
  803dac:	11000017 	ldw	r4,0(r2)
  803db0:	08039541 	jmpi	803954 <_fseeko_r>

00803db4 <_fstat_r>:
  803db4:	defffd04 	addi	sp,sp,-12
  803db8:	2805883a 	mov	r2,r5
  803dbc:	dc000015 	stw	r16,0(sp)
  803dc0:	040020b4 	movhi	r16,130
  803dc4:	dc400115 	stw	r17,4(sp)
  803dc8:	8423dd04 	addi	r16,r16,-28812
  803dcc:	2023883a 	mov	r17,r4
  803dd0:	300b883a 	mov	r5,r6
  803dd4:	1009883a 	mov	r4,r2
  803dd8:	dfc00215 	stw	ra,8(sp)
  803ddc:	80000015 	stw	zero,0(r16)
  803de0:	0810c440 	call	810c44 <fstat>
  803de4:	00ffffc4 	movi	r3,-1
  803de8:	10c00526 	beq	r2,r3,803e00 <_fstat_r+0x4c>
  803dec:	dfc00217 	ldw	ra,8(sp)
  803df0:	dc400117 	ldw	r17,4(sp)
  803df4:	dc000017 	ldw	r16,0(sp)
  803df8:	dec00304 	addi	sp,sp,12
  803dfc:	f800283a 	ret
  803e00:	80c00017 	ldw	r3,0(r16)
  803e04:	183ff926 	beq	r3,zero,803dec <__alt_mem_onchip_mem+0xff783dec>
  803e08:	88c00015 	stw	r3,0(r17)
  803e0c:	003ff706 	br	803dec <__alt_mem_onchip_mem+0xff783dec>

00803e10 <_fwrite_r>:
  803e10:	defff504 	addi	sp,sp,-44
  803e14:	dc800815 	stw	r18,32(sp)
  803e18:	39a5383a 	mul	r18,r7,r6
  803e1c:	d8800304 	addi	r2,sp,12
  803e20:	d8800015 	stw	r2,0(sp)
  803e24:	00800044 	movi	r2,1
  803e28:	dcc00915 	stw	r19,36(sp)
  803e2c:	dc400715 	stw	r17,28(sp)
  803e30:	dc000615 	stw	r16,24(sp)
  803e34:	d9400315 	stw	r5,12(sp)
  803e38:	dfc00a15 	stw	ra,40(sp)
  803e3c:	dc800415 	stw	r18,16(sp)
  803e40:	dc800215 	stw	r18,8(sp)
  803e44:	d8800115 	stw	r2,4(sp)
  803e48:	3027883a 	mov	r19,r6
  803e4c:	3821883a 	mov	r16,r7
  803e50:	2023883a 	mov	r17,r4
  803e54:	d9400b17 	ldw	r5,44(sp)
  803e58:	20000226 	beq	r4,zero,803e64 <_fwrite_r+0x54>
  803e5c:	20800e17 	ldw	r2,56(r4)
  803e60:	10001a26 	beq	r2,zero,803ecc <_fwrite_r+0xbc>
  803e64:	2880030b 	ldhu	r2,12(r5)
  803e68:	10c8000c 	andi	r3,r2,8192
  803e6c:	1800061e 	bne	r3,zero,803e88 <_fwrite_r+0x78>
  803e70:	29001917 	ldw	r4,100(r5)
  803e74:	00f7ffc4 	movi	r3,-8193
  803e78:	10880014 	ori	r2,r2,8192
  803e7c:	20c6703a 	and	r3,r4,r3
  803e80:	2880030d 	sth	r2,12(r5)
  803e84:	28c01915 	stw	r3,100(r5)
  803e88:	d80d883a 	mov	r6,sp
  803e8c:	8809883a 	mov	r4,r17
  803e90:	08098400 	call	809840 <__sfvwrite_r>
  803e94:	10000b26 	beq	r2,zero,803ec4 <_fwrite_r+0xb4>
  803e98:	d9000217 	ldw	r4,8(sp)
  803e9c:	980b883a 	mov	r5,r19
  803ea0:	9109c83a 	sub	r4,r18,r4
  803ea4:	080e3ac0 	call	80e3ac <__udivsi3>
  803ea8:	dfc00a17 	ldw	ra,40(sp)
  803eac:	dcc00917 	ldw	r19,36(sp)
  803eb0:	dc800817 	ldw	r18,32(sp)
  803eb4:	dc400717 	ldw	r17,28(sp)
  803eb8:	dc000617 	ldw	r16,24(sp)
  803ebc:	dec00b04 	addi	sp,sp,44
  803ec0:	f800283a 	ret
  803ec4:	8005883a 	mov	r2,r16
  803ec8:	003ff706 	br	803ea8 <__alt_mem_onchip_mem+0xff783ea8>
  803ecc:	d9400515 	stw	r5,20(sp)
  803ed0:	08093100 	call	809310 <__sinit>
  803ed4:	d9400517 	ldw	r5,20(sp)
  803ed8:	003fe206 	br	803e64 <__alt_mem_onchip_mem+0xff783e64>

00803edc <fwrite>:
  803edc:	defffe04 	addi	sp,sp,-8
  803ee0:	00802074 	movhi	r2,129
  803ee4:	d9c00015 	stw	r7,0(sp)
  803ee8:	109c3a04 	addi	r2,r2,28904
  803eec:	300f883a 	mov	r7,r6
  803ef0:	280d883a 	mov	r6,r5
  803ef4:	200b883a 	mov	r5,r4
  803ef8:	11000017 	ldw	r4,0(r2)
  803efc:	dfc00115 	stw	ra,4(sp)
  803f00:	0803e100 	call	803e10 <_fwrite_r>
  803f04:	dfc00117 	ldw	ra,4(sp)
  803f08:	dec00204 	addi	sp,sp,8
  803f0c:	f800283a 	ret

00803f10 <__smakebuf_r>:
  803f10:	2880030b 	ldhu	r2,12(r5)
  803f14:	10c0008c 	andi	r3,r2,2
  803f18:	1800411e 	bne	r3,zero,804020 <__smakebuf_r+0x110>
  803f1c:	deffec04 	addi	sp,sp,-80
  803f20:	dc000f15 	stw	r16,60(sp)
  803f24:	2821883a 	mov	r16,r5
  803f28:	2940038f 	ldh	r5,14(r5)
  803f2c:	dc401015 	stw	r17,64(sp)
  803f30:	dfc01315 	stw	ra,76(sp)
  803f34:	dcc01215 	stw	r19,72(sp)
  803f38:	dc801115 	stw	r18,68(sp)
  803f3c:	2023883a 	mov	r17,r4
  803f40:	28001c16 	blt	r5,zero,803fb4 <__smakebuf_r+0xa4>
  803f44:	d80d883a 	mov	r6,sp
  803f48:	0803db40 	call	803db4 <_fstat_r>
  803f4c:	10001816 	blt	r2,zero,803fb0 <__smakebuf_r+0xa0>
  803f50:	d8800117 	ldw	r2,4(sp)
  803f54:	00e00014 	movui	r3,32768
  803f58:	10bc000c 	andi	r2,r2,61440
  803f5c:	14c80020 	cmpeqi	r19,r2,8192
  803f60:	10c03726 	beq	r2,r3,804040 <__smakebuf_r+0x130>
  803f64:	80c0030b 	ldhu	r3,12(r16)
  803f68:	18c20014 	ori	r3,r3,2048
  803f6c:	80c0030d 	sth	r3,12(r16)
  803f70:	00c80004 	movi	r3,8192
  803f74:	10c0521e 	bne	r2,r3,8040c0 <__smakebuf_r+0x1b0>
  803f78:	8140038f 	ldh	r5,14(r16)
  803f7c:	8809883a 	mov	r4,r17
  803f80:	0809e840 	call	809e84 <_isatty_r>
  803f84:	10004c26 	beq	r2,zero,8040b8 <__smakebuf_r+0x1a8>
  803f88:	8080030b 	ldhu	r2,12(r16)
  803f8c:	80c010c4 	addi	r3,r16,67
  803f90:	80c00015 	stw	r3,0(r16)
  803f94:	10800054 	ori	r2,r2,1
  803f98:	8080030d 	sth	r2,12(r16)
  803f9c:	00800044 	movi	r2,1
  803fa0:	80c00415 	stw	r3,16(r16)
  803fa4:	80800515 	stw	r2,20(r16)
  803fa8:	04810004 	movi	r18,1024
  803fac:	00000706 	br	803fcc <__smakebuf_r+0xbc>
  803fb0:	8080030b 	ldhu	r2,12(r16)
  803fb4:	10c0200c 	andi	r3,r2,128
  803fb8:	18001f1e 	bne	r3,zero,804038 <__smakebuf_r+0x128>
  803fbc:	04810004 	movi	r18,1024
  803fc0:	10820014 	ori	r2,r2,2048
  803fc4:	8080030d 	sth	r2,12(r16)
  803fc8:	0027883a 	mov	r19,zero
  803fcc:	900b883a 	mov	r5,r18
  803fd0:	8809883a 	mov	r4,r17
  803fd4:	08040cc0 	call	8040cc <_malloc_r>
  803fd8:	10002c26 	beq	r2,zero,80408c <__smakebuf_r+0x17c>
  803fdc:	80c0030b 	ldhu	r3,12(r16)
  803fe0:	01002074 	movhi	r4,129
  803fe4:	2123f204 	addi	r4,r4,-28728
  803fe8:	89000f15 	stw	r4,60(r17)
  803fec:	18c02014 	ori	r3,r3,128
  803ff0:	80c0030d 	sth	r3,12(r16)
  803ff4:	80800015 	stw	r2,0(r16)
  803ff8:	80800415 	stw	r2,16(r16)
  803ffc:	84800515 	stw	r18,20(r16)
  804000:	98001a1e 	bne	r19,zero,80406c <__smakebuf_r+0x15c>
  804004:	dfc01317 	ldw	ra,76(sp)
  804008:	dcc01217 	ldw	r19,72(sp)
  80400c:	dc801117 	ldw	r18,68(sp)
  804010:	dc401017 	ldw	r17,64(sp)
  804014:	dc000f17 	ldw	r16,60(sp)
  804018:	dec01404 	addi	sp,sp,80
  80401c:	f800283a 	ret
  804020:	288010c4 	addi	r2,r5,67
  804024:	28800015 	stw	r2,0(r5)
  804028:	28800415 	stw	r2,16(r5)
  80402c:	00800044 	movi	r2,1
  804030:	28800515 	stw	r2,20(r5)
  804034:	f800283a 	ret
  804038:	04801004 	movi	r18,64
  80403c:	003fe006 	br	803fc0 <__alt_mem_onchip_mem+0xff783fc0>
  804040:	81000a17 	ldw	r4,40(r16)
  804044:	00c02034 	movhi	r3,128
  804048:	18d3af04 	addi	r3,r3,20156
  80404c:	20ffc51e 	bne	r4,r3,803f64 <__alt_mem_onchip_mem+0xff783f64>
  804050:	8080030b 	ldhu	r2,12(r16)
  804054:	04810004 	movi	r18,1024
  804058:	84801315 	stw	r18,76(r16)
  80405c:	1484b03a 	or	r2,r2,r18
  804060:	8080030d 	sth	r2,12(r16)
  804064:	0027883a 	mov	r19,zero
  804068:	003fd806 	br	803fcc <__alt_mem_onchip_mem+0xff783fcc>
  80406c:	8140038f 	ldh	r5,14(r16)
  804070:	8809883a 	mov	r4,r17
  804074:	0809e840 	call	809e84 <_isatty_r>
  804078:	103fe226 	beq	r2,zero,804004 <__alt_mem_onchip_mem+0xff784004>
  80407c:	8080030b 	ldhu	r2,12(r16)
  804080:	10800054 	ori	r2,r2,1
  804084:	8080030d 	sth	r2,12(r16)
  804088:	003fde06 	br	804004 <__alt_mem_onchip_mem+0xff784004>
  80408c:	8080030b 	ldhu	r2,12(r16)
  804090:	10c0800c 	andi	r3,r2,512
  804094:	183fdb1e 	bne	r3,zero,804004 <__alt_mem_onchip_mem+0xff784004>
  804098:	10800094 	ori	r2,r2,2
  80409c:	80c010c4 	addi	r3,r16,67
  8040a0:	8080030d 	sth	r2,12(r16)
  8040a4:	00800044 	movi	r2,1
  8040a8:	80c00015 	stw	r3,0(r16)
  8040ac:	80c00415 	stw	r3,16(r16)
  8040b0:	80800515 	stw	r2,20(r16)
  8040b4:	003fd306 	br	804004 <__alt_mem_onchip_mem+0xff784004>
  8040b8:	04810004 	movi	r18,1024
  8040bc:	003fc306 	br	803fcc <__alt_mem_onchip_mem+0xff783fcc>
  8040c0:	0027883a 	mov	r19,zero
  8040c4:	04810004 	movi	r18,1024
  8040c8:	003fc006 	br	803fcc <__alt_mem_onchip_mem+0xff783fcc>

008040cc <_malloc_r>:
  8040cc:	defff504 	addi	sp,sp,-44
  8040d0:	dc800315 	stw	r18,12(sp)
  8040d4:	dfc00a15 	stw	ra,40(sp)
  8040d8:	df000915 	stw	fp,36(sp)
  8040dc:	ddc00815 	stw	r23,32(sp)
  8040e0:	dd800715 	stw	r22,28(sp)
  8040e4:	dd400615 	stw	r21,24(sp)
  8040e8:	dd000515 	stw	r20,20(sp)
  8040ec:	dcc00415 	stw	r19,16(sp)
  8040f0:	dc400215 	stw	r17,8(sp)
  8040f4:	dc000115 	stw	r16,4(sp)
  8040f8:	288002c4 	addi	r2,r5,11
  8040fc:	00c00584 	movi	r3,22
  804100:	2025883a 	mov	r18,r4
  804104:	18807f2e 	bgeu	r3,r2,804304 <_malloc_r+0x238>
  804108:	047ffe04 	movi	r17,-8
  80410c:	1462703a 	and	r17,r2,r17
  804110:	8800a316 	blt	r17,zero,8043a0 <_malloc_r+0x2d4>
  804114:	8940a236 	bltu	r17,r5,8043a0 <_malloc_r+0x2d4>
  804118:	08111cc0 	call	8111cc <__malloc_lock>
  80411c:	00807dc4 	movi	r2,503
  804120:	1441e92e 	bgeu	r2,r17,8048c8 <_malloc_r+0x7fc>
  804124:	8804d27a 	srli	r2,r17,9
  804128:	1000a126 	beq	r2,zero,8043b0 <_malloc_r+0x2e4>
  80412c:	00c00104 	movi	r3,4
  804130:	18811e36 	bltu	r3,r2,8045ac <_malloc_r+0x4e0>
  804134:	8804d1ba 	srli	r2,r17,6
  804138:	12000e44 	addi	r8,r2,57
  80413c:	11c00e04 	addi	r7,r2,56
  804140:	4209883a 	add	r4,r8,r8
  804144:	04c02074 	movhi	r19,129
  804148:	2109883a 	add	r4,r4,r4
  80414c:	9cd61e04 	addi	r19,r19,22648
  804150:	2109883a 	add	r4,r4,r4
  804154:	9909883a 	add	r4,r19,r4
  804158:	24000117 	ldw	r16,4(r4)
  80415c:	213ffe04 	addi	r4,r4,-8
  804160:	24009726 	beq	r4,r16,8043c0 <_malloc_r+0x2f4>
  804164:	80800117 	ldw	r2,4(r16)
  804168:	01bfff04 	movi	r6,-4
  80416c:	014003c4 	movi	r5,15
  804170:	1184703a 	and	r2,r2,r6
  804174:	1447c83a 	sub	r3,r2,r17
  804178:	28c00716 	blt	r5,r3,804198 <_malloc_r+0xcc>
  80417c:	1800920e 	bge	r3,zero,8043c8 <_malloc_r+0x2fc>
  804180:	84000317 	ldw	r16,12(r16)
  804184:	24008e26 	beq	r4,r16,8043c0 <_malloc_r+0x2f4>
  804188:	80800117 	ldw	r2,4(r16)
  80418c:	1184703a 	and	r2,r2,r6
  804190:	1447c83a 	sub	r3,r2,r17
  804194:	28fff90e 	bge	r5,r3,80417c <__alt_mem_onchip_mem+0xff78417c>
  804198:	3809883a 	mov	r4,r7
  80419c:	01802074 	movhi	r6,129
  8041a0:	9c000417 	ldw	r16,16(r19)
  8041a4:	31961e04 	addi	r6,r6,22648
  8041a8:	32000204 	addi	r8,r6,8
  8041ac:	82013426 	beq	r16,r8,804680 <_malloc_r+0x5b4>
  8041b0:	80c00117 	ldw	r3,4(r16)
  8041b4:	00bfff04 	movi	r2,-4
  8041b8:	188e703a 	and	r7,r3,r2
  8041bc:	3c45c83a 	sub	r2,r7,r17
  8041c0:	00c003c4 	movi	r3,15
  8041c4:	18811f16 	blt	r3,r2,804644 <_malloc_r+0x578>
  8041c8:	32000515 	stw	r8,20(r6)
  8041cc:	32000415 	stw	r8,16(r6)
  8041d0:	10007f0e 	bge	r2,zero,8043d0 <_malloc_r+0x304>
  8041d4:	00807fc4 	movi	r2,511
  8041d8:	11c0fd36 	bltu	r2,r7,8045d0 <_malloc_r+0x504>
  8041dc:	3806d0fa 	srli	r3,r7,3
  8041e0:	01c00044 	movi	r7,1
  8041e4:	30800117 	ldw	r2,4(r6)
  8041e8:	19400044 	addi	r5,r3,1
  8041ec:	294b883a 	add	r5,r5,r5
  8041f0:	1807d0ba 	srai	r3,r3,2
  8041f4:	294b883a 	add	r5,r5,r5
  8041f8:	294b883a 	add	r5,r5,r5
  8041fc:	298b883a 	add	r5,r5,r6
  804200:	38c6983a 	sll	r3,r7,r3
  804204:	29c00017 	ldw	r7,0(r5)
  804208:	2a7ffe04 	addi	r9,r5,-8
  80420c:	1886b03a 	or	r3,r3,r2
  804210:	82400315 	stw	r9,12(r16)
  804214:	81c00215 	stw	r7,8(r16)
  804218:	30c00115 	stw	r3,4(r6)
  80421c:	2c000015 	stw	r16,0(r5)
  804220:	3c000315 	stw	r16,12(r7)
  804224:	2005d0ba 	srai	r2,r4,2
  804228:	01400044 	movi	r5,1
  80422c:	288a983a 	sll	r5,r5,r2
  804230:	19406f36 	bltu	r3,r5,8043f0 <_malloc_r+0x324>
  804234:	28c4703a 	and	r2,r5,r3
  804238:	10000a1e 	bne	r2,zero,804264 <_malloc_r+0x198>
  80423c:	00bfff04 	movi	r2,-4
  804240:	294b883a 	add	r5,r5,r5
  804244:	2088703a 	and	r4,r4,r2
  804248:	28c4703a 	and	r2,r5,r3
  80424c:	21000104 	addi	r4,r4,4
  804250:	1000041e 	bne	r2,zero,804264 <_malloc_r+0x198>
  804254:	294b883a 	add	r5,r5,r5
  804258:	28c4703a 	and	r2,r5,r3
  80425c:	21000104 	addi	r4,r4,4
  804260:	103ffc26 	beq	r2,zero,804254 <__alt_mem_onchip_mem+0xff784254>
  804264:	02bfff04 	movi	r10,-4
  804268:	024003c4 	movi	r9,15
  80426c:	21800044 	addi	r6,r4,1
  804270:	318d883a 	add	r6,r6,r6
  804274:	318d883a 	add	r6,r6,r6
  804278:	318d883a 	add	r6,r6,r6
  80427c:	998d883a 	add	r6,r19,r6
  804280:	333ffe04 	addi	r12,r6,-8
  804284:	2017883a 	mov	r11,r4
  804288:	31800104 	addi	r6,r6,4
  80428c:	34000017 	ldw	r16,0(r6)
  804290:	31fffd04 	addi	r7,r6,-12
  804294:	81c0041e 	bne	r16,r7,8042a8 <_malloc_r+0x1dc>
  804298:	0000fb06 	br	804688 <_malloc_r+0x5bc>
  80429c:	1801030e 	bge	r3,zero,8046ac <_malloc_r+0x5e0>
  8042a0:	84000317 	ldw	r16,12(r16)
  8042a4:	81c0f826 	beq	r16,r7,804688 <_malloc_r+0x5bc>
  8042a8:	80800117 	ldw	r2,4(r16)
  8042ac:	1284703a 	and	r2,r2,r10
  8042b0:	1447c83a 	sub	r3,r2,r17
  8042b4:	48fff90e 	bge	r9,r3,80429c <__alt_mem_onchip_mem+0xff78429c>
  8042b8:	80800317 	ldw	r2,12(r16)
  8042bc:	81000217 	ldw	r4,8(r16)
  8042c0:	89400054 	ori	r5,r17,1
  8042c4:	81400115 	stw	r5,4(r16)
  8042c8:	20800315 	stw	r2,12(r4)
  8042cc:	11000215 	stw	r4,8(r2)
  8042d0:	8463883a 	add	r17,r16,r17
  8042d4:	9c400515 	stw	r17,20(r19)
  8042d8:	9c400415 	stw	r17,16(r19)
  8042dc:	18800054 	ori	r2,r3,1
  8042e0:	88800115 	stw	r2,4(r17)
  8042e4:	8a000315 	stw	r8,12(r17)
  8042e8:	8a000215 	stw	r8,8(r17)
  8042ec:	88e3883a 	add	r17,r17,r3
  8042f0:	88c00015 	stw	r3,0(r17)
  8042f4:	9009883a 	mov	r4,r18
  8042f8:	08111f00 	call	8111f0 <__malloc_unlock>
  8042fc:	80800204 	addi	r2,r16,8
  804300:	00001b06 	br	804370 <_malloc_r+0x2a4>
  804304:	04400404 	movi	r17,16
  804308:	89402536 	bltu	r17,r5,8043a0 <_malloc_r+0x2d4>
  80430c:	08111cc0 	call	8111cc <__malloc_lock>
  804310:	00800184 	movi	r2,6
  804314:	01000084 	movi	r4,2
  804318:	04c02074 	movhi	r19,129
  80431c:	1085883a 	add	r2,r2,r2
  804320:	9cd61e04 	addi	r19,r19,22648
  804324:	1085883a 	add	r2,r2,r2
  804328:	9885883a 	add	r2,r19,r2
  80432c:	14000117 	ldw	r16,4(r2)
  804330:	10fffe04 	addi	r3,r2,-8
  804334:	80c0d926 	beq	r16,r3,80469c <_malloc_r+0x5d0>
  804338:	80c00117 	ldw	r3,4(r16)
  80433c:	81000317 	ldw	r4,12(r16)
  804340:	00bfff04 	movi	r2,-4
  804344:	1884703a 	and	r2,r3,r2
  804348:	81400217 	ldw	r5,8(r16)
  80434c:	8085883a 	add	r2,r16,r2
  804350:	10c00117 	ldw	r3,4(r2)
  804354:	29000315 	stw	r4,12(r5)
  804358:	21400215 	stw	r5,8(r4)
  80435c:	18c00054 	ori	r3,r3,1
  804360:	10c00115 	stw	r3,4(r2)
  804364:	9009883a 	mov	r4,r18
  804368:	08111f00 	call	8111f0 <__malloc_unlock>
  80436c:	80800204 	addi	r2,r16,8
  804370:	dfc00a17 	ldw	ra,40(sp)
  804374:	df000917 	ldw	fp,36(sp)
  804378:	ddc00817 	ldw	r23,32(sp)
  80437c:	dd800717 	ldw	r22,28(sp)
  804380:	dd400617 	ldw	r21,24(sp)
  804384:	dd000517 	ldw	r20,20(sp)
  804388:	dcc00417 	ldw	r19,16(sp)
  80438c:	dc800317 	ldw	r18,12(sp)
  804390:	dc400217 	ldw	r17,8(sp)
  804394:	dc000117 	ldw	r16,4(sp)
  804398:	dec00b04 	addi	sp,sp,44
  80439c:	f800283a 	ret
  8043a0:	00800304 	movi	r2,12
  8043a4:	90800015 	stw	r2,0(r18)
  8043a8:	0005883a 	mov	r2,zero
  8043ac:	003ff006 	br	804370 <__alt_mem_onchip_mem+0xff784370>
  8043b0:	01002004 	movi	r4,128
  8043b4:	02001004 	movi	r8,64
  8043b8:	01c00fc4 	movi	r7,63
  8043bc:	003f6106 	br	804144 <__alt_mem_onchip_mem+0xff784144>
  8043c0:	4009883a 	mov	r4,r8
  8043c4:	003f7506 	br	80419c <__alt_mem_onchip_mem+0xff78419c>
  8043c8:	81000317 	ldw	r4,12(r16)
  8043cc:	003fde06 	br	804348 <__alt_mem_onchip_mem+0xff784348>
  8043d0:	81c5883a 	add	r2,r16,r7
  8043d4:	11400117 	ldw	r5,4(r2)
  8043d8:	9009883a 	mov	r4,r18
  8043dc:	29400054 	ori	r5,r5,1
  8043e0:	11400115 	stw	r5,4(r2)
  8043e4:	08111f00 	call	8111f0 <__malloc_unlock>
  8043e8:	80800204 	addi	r2,r16,8
  8043ec:	003fe006 	br	804370 <__alt_mem_onchip_mem+0xff784370>
  8043f0:	9c000217 	ldw	r16,8(r19)
  8043f4:	00bfff04 	movi	r2,-4
  8043f8:	85800117 	ldw	r22,4(r16)
  8043fc:	b0ac703a 	and	r22,r22,r2
  804400:	b4400336 	bltu	r22,r17,804410 <_malloc_r+0x344>
  804404:	b445c83a 	sub	r2,r22,r17
  804408:	00c003c4 	movi	r3,15
  80440c:	18805d16 	blt	r3,r2,804584 <_malloc_r+0x4b8>
  804410:	05c02074 	movhi	r23,129
  804414:	008020b4 	movhi	r2,130
  804418:	10a3e004 	addi	r2,r2,-28800
  80441c:	bddc3b04 	addi	r23,r23,28908
  804420:	15400017 	ldw	r21,0(r2)
  804424:	b8c00017 	ldw	r3,0(r23)
  804428:	00bfffc4 	movi	r2,-1
  80442c:	858d883a 	add	r6,r16,r22
  804430:	8d6b883a 	add	r21,r17,r21
  804434:	1880ea26 	beq	r3,r2,8047e0 <_malloc_r+0x714>
  804438:	ad4403c4 	addi	r21,r21,4111
  80443c:	00bc0004 	movi	r2,-4096
  804440:	a8aa703a 	and	r21,r21,r2
  804444:	a80b883a 	mov	r5,r21
  804448:	9009883a 	mov	r4,r18
  80444c:	d9800015 	stw	r6,0(sp)
  804450:	0804d900 	call	804d90 <_sbrk_r>
  804454:	1029883a 	mov	r20,r2
  804458:	00bfffc4 	movi	r2,-1
  80445c:	d9800017 	ldw	r6,0(sp)
  804460:	a080e826 	beq	r20,r2,804804 <_malloc_r+0x738>
  804464:	a180a636 	bltu	r20,r6,804700 <_malloc_r+0x634>
  804468:	070020b4 	movhi	fp,130
  80446c:	e723f104 	addi	fp,fp,-28732
  804470:	e0800017 	ldw	r2,0(fp)
  804474:	a887883a 	add	r3,r21,r2
  804478:	e0c00015 	stw	r3,0(fp)
  80447c:	3500e626 	beq	r6,r20,804818 <_malloc_r+0x74c>
  804480:	b9000017 	ldw	r4,0(r23)
  804484:	00bfffc4 	movi	r2,-1
  804488:	2080ee26 	beq	r4,r2,804844 <_malloc_r+0x778>
  80448c:	a185c83a 	sub	r2,r20,r6
  804490:	10c5883a 	add	r2,r2,r3
  804494:	e0800015 	stw	r2,0(fp)
  804498:	a0c001cc 	andi	r3,r20,7
  80449c:	1800bc26 	beq	r3,zero,804790 <_malloc_r+0x6c4>
  8044a0:	a0e9c83a 	sub	r20,r20,r3
  8044a4:	00840204 	movi	r2,4104
  8044a8:	a5000204 	addi	r20,r20,8
  8044ac:	10c7c83a 	sub	r3,r2,r3
  8044b0:	a545883a 	add	r2,r20,r21
  8044b4:	1083ffcc 	andi	r2,r2,4095
  8044b8:	18abc83a 	sub	r21,r3,r2
  8044bc:	a80b883a 	mov	r5,r21
  8044c0:	9009883a 	mov	r4,r18
  8044c4:	0804d900 	call	804d90 <_sbrk_r>
  8044c8:	00ffffc4 	movi	r3,-1
  8044cc:	10c0e126 	beq	r2,r3,804854 <_malloc_r+0x788>
  8044d0:	1505c83a 	sub	r2,r2,r20
  8044d4:	1545883a 	add	r2,r2,r21
  8044d8:	10800054 	ori	r2,r2,1
  8044dc:	e0c00017 	ldw	r3,0(fp)
  8044e0:	9d000215 	stw	r20,8(r19)
  8044e4:	a0800115 	stw	r2,4(r20)
  8044e8:	a8c7883a 	add	r3,r21,r3
  8044ec:	e0c00015 	stw	r3,0(fp)
  8044f0:	84c00e26 	beq	r16,r19,80452c <_malloc_r+0x460>
  8044f4:	018003c4 	movi	r6,15
  8044f8:	3580a72e 	bgeu	r6,r22,804798 <_malloc_r+0x6cc>
  8044fc:	81400117 	ldw	r5,4(r16)
  804500:	013ffe04 	movi	r4,-8
  804504:	b0bffd04 	addi	r2,r22,-12
  804508:	1104703a 	and	r2,r2,r4
  80450c:	2900004c 	andi	r4,r5,1
  804510:	2088b03a 	or	r4,r4,r2
  804514:	81000115 	stw	r4,4(r16)
  804518:	01400144 	movi	r5,5
  80451c:	8089883a 	add	r4,r16,r2
  804520:	21400115 	stw	r5,4(r4)
  804524:	21400215 	stw	r5,8(r4)
  804528:	3080cd36 	bltu	r6,r2,804860 <_malloc_r+0x794>
  80452c:	008020b4 	movhi	r2,130
  804530:	10a3df04 	addi	r2,r2,-28804
  804534:	11000017 	ldw	r4,0(r2)
  804538:	20c0012e 	bgeu	r4,r3,804540 <_malloc_r+0x474>
  80453c:	10c00015 	stw	r3,0(r2)
  804540:	008020b4 	movhi	r2,130
  804544:	10a3de04 	addi	r2,r2,-28808
  804548:	11000017 	ldw	r4,0(r2)
  80454c:	9c000217 	ldw	r16,8(r19)
  804550:	20c0012e 	bgeu	r4,r3,804558 <_malloc_r+0x48c>
  804554:	10c00015 	stw	r3,0(r2)
  804558:	80c00117 	ldw	r3,4(r16)
  80455c:	00bfff04 	movi	r2,-4
  804560:	1886703a 	and	r3,r3,r2
  804564:	1c45c83a 	sub	r2,r3,r17
  804568:	1c400236 	bltu	r3,r17,804574 <_malloc_r+0x4a8>
  80456c:	00c003c4 	movi	r3,15
  804570:	18800416 	blt	r3,r2,804584 <_malloc_r+0x4b8>
  804574:	9009883a 	mov	r4,r18
  804578:	08111f00 	call	8111f0 <__malloc_unlock>
  80457c:	0005883a 	mov	r2,zero
  804580:	003f7b06 	br	804370 <__alt_mem_onchip_mem+0xff784370>
  804584:	88c00054 	ori	r3,r17,1
  804588:	80c00115 	stw	r3,4(r16)
  80458c:	8463883a 	add	r17,r16,r17
  804590:	10800054 	ori	r2,r2,1
  804594:	9c400215 	stw	r17,8(r19)
  804598:	88800115 	stw	r2,4(r17)
  80459c:	9009883a 	mov	r4,r18
  8045a0:	08111f00 	call	8111f0 <__malloc_unlock>
  8045a4:	80800204 	addi	r2,r16,8
  8045a8:	003f7106 	br	804370 <__alt_mem_onchip_mem+0xff784370>
  8045ac:	00c00504 	movi	r3,20
  8045b0:	18804a2e 	bgeu	r3,r2,8046dc <_malloc_r+0x610>
  8045b4:	00c01504 	movi	r3,84
  8045b8:	18806e36 	bltu	r3,r2,804774 <_malloc_r+0x6a8>
  8045bc:	8804d33a 	srli	r2,r17,12
  8045c0:	12001bc4 	addi	r8,r2,111
  8045c4:	11c01b84 	addi	r7,r2,110
  8045c8:	4209883a 	add	r4,r8,r8
  8045cc:	003edd06 	br	804144 <__alt_mem_onchip_mem+0xff784144>
  8045d0:	3804d27a 	srli	r2,r7,9
  8045d4:	00c00104 	movi	r3,4
  8045d8:	1880442e 	bgeu	r3,r2,8046ec <_malloc_r+0x620>
  8045dc:	00c00504 	movi	r3,20
  8045e0:	18808136 	bltu	r3,r2,8047e8 <_malloc_r+0x71c>
  8045e4:	11401704 	addi	r5,r2,92
  8045e8:	10c016c4 	addi	r3,r2,91
  8045ec:	294b883a 	add	r5,r5,r5
  8045f0:	294b883a 	add	r5,r5,r5
  8045f4:	294b883a 	add	r5,r5,r5
  8045f8:	994b883a 	add	r5,r19,r5
  8045fc:	28800017 	ldw	r2,0(r5)
  804600:	01802074 	movhi	r6,129
  804604:	297ffe04 	addi	r5,r5,-8
  804608:	31961e04 	addi	r6,r6,22648
  80460c:	28806526 	beq	r5,r2,8047a4 <_malloc_r+0x6d8>
  804610:	01bfff04 	movi	r6,-4
  804614:	10c00117 	ldw	r3,4(r2)
  804618:	1986703a 	and	r3,r3,r6
  80461c:	38c0022e 	bgeu	r7,r3,804628 <_malloc_r+0x55c>
  804620:	10800217 	ldw	r2,8(r2)
  804624:	28bffb1e 	bne	r5,r2,804614 <__alt_mem_onchip_mem+0xff784614>
  804628:	11400317 	ldw	r5,12(r2)
  80462c:	98c00117 	ldw	r3,4(r19)
  804630:	81400315 	stw	r5,12(r16)
  804634:	80800215 	stw	r2,8(r16)
  804638:	2c000215 	stw	r16,8(r5)
  80463c:	14000315 	stw	r16,12(r2)
  804640:	003ef806 	br	804224 <__alt_mem_onchip_mem+0xff784224>
  804644:	88c00054 	ori	r3,r17,1
  804648:	80c00115 	stw	r3,4(r16)
  80464c:	8463883a 	add	r17,r16,r17
  804650:	34400515 	stw	r17,20(r6)
  804654:	34400415 	stw	r17,16(r6)
  804658:	10c00054 	ori	r3,r2,1
  80465c:	8a000315 	stw	r8,12(r17)
  804660:	8a000215 	stw	r8,8(r17)
  804664:	88c00115 	stw	r3,4(r17)
  804668:	88a3883a 	add	r17,r17,r2
  80466c:	88800015 	stw	r2,0(r17)
  804670:	9009883a 	mov	r4,r18
  804674:	08111f00 	call	8111f0 <__malloc_unlock>
  804678:	80800204 	addi	r2,r16,8
  80467c:	003f3c06 	br	804370 <__alt_mem_onchip_mem+0xff784370>
  804680:	30c00117 	ldw	r3,4(r6)
  804684:	003ee706 	br	804224 <__alt_mem_onchip_mem+0xff784224>
  804688:	5ac00044 	addi	r11,r11,1
  80468c:	588000cc 	andi	r2,r11,3
  804690:	31800204 	addi	r6,r6,8
  804694:	103efd1e 	bne	r2,zero,80428c <__alt_mem_onchip_mem+0xff78428c>
  804698:	00002406 	br	80472c <_malloc_r+0x660>
  80469c:	14000317 	ldw	r16,12(r2)
  8046a0:	143f251e 	bne	r2,r16,804338 <__alt_mem_onchip_mem+0xff784338>
  8046a4:	21000084 	addi	r4,r4,2
  8046a8:	003ebc06 	br	80419c <__alt_mem_onchip_mem+0xff78419c>
  8046ac:	8085883a 	add	r2,r16,r2
  8046b0:	10c00117 	ldw	r3,4(r2)
  8046b4:	81000317 	ldw	r4,12(r16)
  8046b8:	81400217 	ldw	r5,8(r16)
  8046bc:	18c00054 	ori	r3,r3,1
  8046c0:	10c00115 	stw	r3,4(r2)
  8046c4:	29000315 	stw	r4,12(r5)
  8046c8:	21400215 	stw	r5,8(r4)
  8046cc:	9009883a 	mov	r4,r18
  8046d0:	08111f00 	call	8111f0 <__malloc_unlock>
  8046d4:	80800204 	addi	r2,r16,8
  8046d8:	003f2506 	br	804370 <__alt_mem_onchip_mem+0xff784370>
  8046dc:	12001704 	addi	r8,r2,92
  8046e0:	11c016c4 	addi	r7,r2,91
  8046e4:	4209883a 	add	r4,r8,r8
  8046e8:	003e9606 	br	804144 <__alt_mem_onchip_mem+0xff784144>
  8046ec:	3804d1ba 	srli	r2,r7,6
  8046f0:	11400e44 	addi	r5,r2,57
  8046f4:	10c00e04 	addi	r3,r2,56
  8046f8:	294b883a 	add	r5,r5,r5
  8046fc:	003fbc06 	br	8045f0 <__alt_mem_onchip_mem+0xff7845f0>
  804700:	84ff5926 	beq	r16,r19,804468 <__alt_mem_onchip_mem+0xff784468>
  804704:	00802074 	movhi	r2,129
  804708:	10961e04 	addi	r2,r2,22648
  80470c:	14000217 	ldw	r16,8(r2)
  804710:	00bfff04 	movi	r2,-4
  804714:	80c00117 	ldw	r3,4(r16)
  804718:	1886703a 	and	r3,r3,r2
  80471c:	003f9106 	br	804564 <__alt_mem_onchip_mem+0xff784564>
  804720:	60800217 	ldw	r2,8(r12)
  804724:	213fffc4 	addi	r4,r4,-1
  804728:	1300651e 	bne	r2,r12,8048c0 <_malloc_r+0x7f4>
  80472c:	208000cc 	andi	r2,r4,3
  804730:	633ffe04 	addi	r12,r12,-8
  804734:	103ffa1e 	bne	r2,zero,804720 <__alt_mem_onchip_mem+0xff784720>
  804738:	98800117 	ldw	r2,4(r19)
  80473c:	0146303a 	nor	r3,zero,r5
  804740:	1884703a 	and	r2,r3,r2
  804744:	98800115 	stw	r2,4(r19)
  804748:	294b883a 	add	r5,r5,r5
  80474c:	117f2836 	bltu	r2,r5,8043f0 <__alt_mem_onchip_mem+0xff7843f0>
  804750:	283f2726 	beq	r5,zero,8043f0 <__alt_mem_onchip_mem+0xff7843f0>
  804754:	2886703a 	and	r3,r5,r2
  804758:	5809883a 	mov	r4,r11
  80475c:	183ec31e 	bne	r3,zero,80426c <__alt_mem_onchip_mem+0xff78426c>
  804760:	294b883a 	add	r5,r5,r5
  804764:	2886703a 	and	r3,r5,r2
  804768:	21000104 	addi	r4,r4,4
  80476c:	183ffc26 	beq	r3,zero,804760 <__alt_mem_onchip_mem+0xff784760>
  804770:	003ebe06 	br	80426c <__alt_mem_onchip_mem+0xff78426c>
  804774:	00c05504 	movi	r3,340
  804778:	18801236 	bltu	r3,r2,8047c4 <_malloc_r+0x6f8>
  80477c:	8804d3fa 	srli	r2,r17,15
  804780:	12001e04 	addi	r8,r2,120
  804784:	11c01dc4 	addi	r7,r2,119
  804788:	4209883a 	add	r4,r8,r8
  80478c:	003e6d06 	br	804144 <__alt_mem_onchip_mem+0xff784144>
  804790:	00c40004 	movi	r3,4096
  804794:	003f4606 	br	8044b0 <__alt_mem_onchip_mem+0xff7844b0>
  804798:	00800044 	movi	r2,1
  80479c:	a0800115 	stw	r2,4(r20)
  8047a0:	003f7406 	br	804574 <__alt_mem_onchip_mem+0xff784574>
  8047a4:	1805d0ba 	srai	r2,r3,2
  8047a8:	01c00044 	movi	r7,1
  8047ac:	30c00117 	ldw	r3,4(r6)
  8047b0:	388e983a 	sll	r7,r7,r2
  8047b4:	2805883a 	mov	r2,r5
  8047b8:	38c6b03a 	or	r3,r7,r3
  8047bc:	30c00115 	stw	r3,4(r6)
  8047c0:	003f9b06 	br	804630 <__alt_mem_onchip_mem+0xff784630>
  8047c4:	00c15504 	movi	r3,1364
  8047c8:	18801a36 	bltu	r3,r2,804834 <_malloc_r+0x768>
  8047cc:	8804d4ba 	srli	r2,r17,18
  8047d0:	12001f44 	addi	r8,r2,125
  8047d4:	11c01f04 	addi	r7,r2,124
  8047d8:	4209883a 	add	r4,r8,r8
  8047dc:	003e5906 	br	804144 <__alt_mem_onchip_mem+0xff784144>
  8047e0:	ad400404 	addi	r21,r21,16
  8047e4:	003f1706 	br	804444 <__alt_mem_onchip_mem+0xff784444>
  8047e8:	00c01504 	movi	r3,84
  8047ec:	18802336 	bltu	r3,r2,80487c <_malloc_r+0x7b0>
  8047f0:	3804d33a 	srli	r2,r7,12
  8047f4:	11401bc4 	addi	r5,r2,111
  8047f8:	10c01b84 	addi	r3,r2,110
  8047fc:	294b883a 	add	r5,r5,r5
  804800:	003f7b06 	br	8045f0 <__alt_mem_onchip_mem+0xff7845f0>
  804804:	9c000217 	ldw	r16,8(r19)
  804808:	00bfff04 	movi	r2,-4
  80480c:	80c00117 	ldw	r3,4(r16)
  804810:	1886703a 	and	r3,r3,r2
  804814:	003f5306 	br	804564 <__alt_mem_onchip_mem+0xff784564>
  804818:	3083ffcc 	andi	r2,r6,4095
  80481c:	103f181e 	bne	r2,zero,804480 <__alt_mem_onchip_mem+0xff784480>
  804820:	99000217 	ldw	r4,8(r19)
  804824:	b545883a 	add	r2,r22,r21
  804828:	10800054 	ori	r2,r2,1
  80482c:	20800115 	stw	r2,4(r4)
  804830:	003f3e06 	br	80452c <__alt_mem_onchip_mem+0xff78452c>
  804834:	01003f84 	movi	r4,254
  804838:	02001fc4 	movi	r8,127
  80483c:	01c01f84 	movi	r7,126
  804840:	003e4006 	br	804144 <__alt_mem_onchip_mem+0xff784144>
  804844:	00802074 	movhi	r2,129
  804848:	109c3b04 	addi	r2,r2,28908
  80484c:	15000015 	stw	r20,0(r2)
  804850:	003f1106 	br	804498 <__alt_mem_onchip_mem+0xff784498>
  804854:	00800044 	movi	r2,1
  804858:	002b883a 	mov	r21,zero
  80485c:	003f1f06 	br	8044dc <__alt_mem_onchip_mem+0xff7844dc>
  804860:	81400204 	addi	r5,r16,8
  804864:	9009883a 	mov	r4,r18
  804868:	08095300 	call	809530 <_free_r>
  80486c:	008020b4 	movhi	r2,130
  804870:	10a3f104 	addi	r2,r2,-28732
  804874:	10c00017 	ldw	r3,0(r2)
  804878:	003f2c06 	br	80452c <__alt_mem_onchip_mem+0xff78452c>
  80487c:	00c05504 	movi	r3,340
  804880:	18800536 	bltu	r3,r2,804898 <_malloc_r+0x7cc>
  804884:	3804d3fa 	srli	r2,r7,15
  804888:	11401e04 	addi	r5,r2,120
  80488c:	10c01dc4 	addi	r3,r2,119
  804890:	294b883a 	add	r5,r5,r5
  804894:	003f5606 	br	8045f0 <__alt_mem_onchip_mem+0xff7845f0>
  804898:	00c15504 	movi	r3,1364
  80489c:	18800536 	bltu	r3,r2,8048b4 <_malloc_r+0x7e8>
  8048a0:	3804d4ba 	srli	r2,r7,18
  8048a4:	11401f44 	addi	r5,r2,125
  8048a8:	10c01f04 	addi	r3,r2,124
  8048ac:	294b883a 	add	r5,r5,r5
  8048b0:	003f4f06 	br	8045f0 <__alt_mem_onchip_mem+0xff7845f0>
  8048b4:	01403f84 	movi	r5,254
  8048b8:	00c01f84 	movi	r3,126
  8048bc:	003f4c06 	br	8045f0 <__alt_mem_onchip_mem+0xff7845f0>
  8048c0:	98800117 	ldw	r2,4(r19)
  8048c4:	003fa006 	br	804748 <__alt_mem_onchip_mem+0xff784748>
  8048c8:	8808d0fa 	srli	r4,r17,3
  8048cc:	20800044 	addi	r2,r4,1
  8048d0:	1085883a 	add	r2,r2,r2
  8048d4:	003e9006 	br	804318 <__alt_mem_onchip_mem+0xff784318>

008048d8 <memset>:
  8048d8:	20c000cc 	andi	r3,r4,3
  8048dc:	2005883a 	mov	r2,r4
  8048e0:	18004426 	beq	r3,zero,8049f4 <memset+0x11c>
  8048e4:	31ffffc4 	addi	r7,r6,-1
  8048e8:	30004026 	beq	r6,zero,8049ec <memset+0x114>
  8048ec:	2813883a 	mov	r9,r5
  8048f0:	200d883a 	mov	r6,r4
  8048f4:	2007883a 	mov	r3,r4
  8048f8:	00000406 	br	80490c <memset+0x34>
  8048fc:	3a3fffc4 	addi	r8,r7,-1
  804900:	31800044 	addi	r6,r6,1
  804904:	38003926 	beq	r7,zero,8049ec <memset+0x114>
  804908:	400f883a 	mov	r7,r8
  80490c:	18c00044 	addi	r3,r3,1
  804910:	32400005 	stb	r9,0(r6)
  804914:	1a0000cc 	andi	r8,r3,3
  804918:	403ff81e 	bne	r8,zero,8048fc <__alt_mem_onchip_mem+0xff7848fc>
  80491c:	010000c4 	movi	r4,3
  804920:	21c02d2e 	bgeu	r4,r7,8049d8 <memset+0x100>
  804924:	29003fcc 	andi	r4,r5,255
  804928:	200c923a 	slli	r6,r4,8
  80492c:	3108b03a 	or	r4,r6,r4
  804930:	200c943a 	slli	r6,r4,16
  804934:	218cb03a 	or	r6,r4,r6
  804938:	010003c4 	movi	r4,15
  80493c:	21c0182e 	bgeu	r4,r7,8049a0 <memset+0xc8>
  804940:	3b3ffc04 	addi	r12,r7,-16
  804944:	6018d13a 	srli	r12,r12,4
  804948:	1a000104 	addi	r8,r3,4
  80494c:	1ac00204 	addi	r11,r3,8
  804950:	6008913a 	slli	r4,r12,4
  804954:	1a800304 	addi	r10,r3,12
  804958:	1813883a 	mov	r9,r3
  80495c:	21000504 	addi	r4,r4,20
  804960:	1909883a 	add	r4,r3,r4
  804964:	49800015 	stw	r6,0(r9)
  804968:	41800015 	stw	r6,0(r8)
  80496c:	59800015 	stw	r6,0(r11)
  804970:	51800015 	stw	r6,0(r10)
  804974:	42000404 	addi	r8,r8,16
  804978:	4a400404 	addi	r9,r9,16
  80497c:	5ac00404 	addi	r11,r11,16
  804980:	52800404 	addi	r10,r10,16
  804984:	413ff71e 	bne	r8,r4,804964 <__alt_mem_onchip_mem+0xff784964>
  804988:	63000044 	addi	r12,r12,1
  80498c:	6018913a 	slli	r12,r12,4
  804990:	39c003cc 	andi	r7,r7,15
  804994:	010000c4 	movi	r4,3
  804998:	1b07883a 	add	r3,r3,r12
  80499c:	21c00e2e 	bgeu	r4,r7,8049d8 <memset+0x100>
  8049a0:	1813883a 	mov	r9,r3
  8049a4:	3811883a 	mov	r8,r7
  8049a8:	010000c4 	movi	r4,3
  8049ac:	49800015 	stw	r6,0(r9)
  8049b0:	423fff04 	addi	r8,r8,-4
  8049b4:	4a400104 	addi	r9,r9,4
  8049b8:	223ffc36 	bltu	r4,r8,8049ac <__alt_mem_onchip_mem+0xff7849ac>
  8049bc:	393fff04 	addi	r4,r7,-4
  8049c0:	2008d0ba 	srli	r4,r4,2
  8049c4:	39c000cc 	andi	r7,r7,3
  8049c8:	21000044 	addi	r4,r4,1
  8049cc:	2109883a 	add	r4,r4,r4
  8049d0:	2109883a 	add	r4,r4,r4
  8049d4:	1907883a 	add	r3,r3,r4
  8049d8:	38000526 	beq	r7,zero,8049f0 <memset+0x118>
  8049dc:	19cf883a 	add	r7,r3,r7
  8049e0:	19400005 	stb	r5,0(r3)
  8049e4:	18c00044 	addi	r3,r3,1
  8049e8:	38fffd1e 	bne	r7,r3,8049e0 <__alt_mem_onchip_mem+0xff7849e0>
  8049ec:	f800283a 	ret
  8049f0:	f800283a 	ret
  8049f4:	2007883a 	mov	r3,r4
  8049f8:	300f883a 	mov	r7,r6
  8049fc:	003fc706 	br	80491c <__alt_mem_onchip_mem+0xff78491c>

00804a00 <_open_r>:
  804a00:	defffd04 	addi	sp,sp,-12
  804a04:	2805883a 	mov	r2,r5
  804a08:	dc000015 	stw	r16,0(sp)
  804a0c:	040020b4 	movhi	r16,130
  804a10:	dc400115 	stw	r17,4(sp)
  804a14:	300b883a 	mov	r5,r6
  804a18:	8423dd04 	addi	r16,r16,-28812
  804a1c:	2023883a 	mov	r17,r4
  804a20:	380d883a 	mov	r6,r7
  804a24:	1009883a 	mov	r4,r2
  804a28:	dfc00215 	stw	ra,8(sp)
  804a2c:	80000015 	stw	zero,0(r16)
  804a30:	08113140 	call	811314 <open>
  804a34:	00ffffc4 	movi	r3,-1
  804a38:	10c00526 	beq	r2,r3,804a50 <_open_r+0x50>
  804a3c:	dfc00217 	ldw	ra,8(sp)
  804a40:	dc400117 	ldw	r17,4(sp)
  804a44:	dc000017 	ldw	r16,0(sp)
  804a48:	dec00304 	addi	sp,sp,12
